
LinkAddress：     文件格式 elf64-x86-64
LinkAddress
体系结构：i386:x86-64， 标志 0x00000150：
HAS_SYMS, DYNAMIC, D_PAGED
起始地址 0x0000000000000710

程序头：
    PHDR off    0x0000000000000040 vaddr 0x0000000000000040 paddr 0x0000000000000040 align 2**3
         filesz 0x00000000000001f8 memsz 0x00000000000001f8 flags r--
  INTERP off    0x0000000000000238 vaddr 0x0000000000000238 paddr 0x0000000000000238 align 2**0
         filesz 0x000000000000001c memsz 0x000000000000001c flags r--
    LOAD off    0x0000000000000000 vaddr 0x0000000000000000 paddr 0x0000000000000000 align 2**21
         filesz 0x0000000000000f60 memsz 0x0000000000000f60 flags r-x
    LOAD off    0x0000000000001d90 vaddr 0x0000000000201d90 paddr 0x0000000000201d90 align 2**21
         filesz 0x0000000000000280 memsz 0x00000000410002b0 flags rw-
 DYNAMIC off    0x0000000000001da0 vaddr 0x0000000000201da0 paddr 0x0000000000201da0 align 2**3
         filesz 0x00000000000001f0 memsz 0x00000000000001f0 flags rw-
    NOTE off    0x0000000000000254 vaddr 0x0000000000000254 paddr 0x0000000000000254 align 2**2
         filesz 0x0000000000000044 memsz 0x0000000000000044 flags r--
EH_FRAME off    0x0000000000000dc8 vaddr 0x0000000000000dc8 paddr 0x0000000000000dc8 align 2**2
         filesz 0x000000000000004c memsz 0x000000000000004c flags r--
   STACK off    0x0000000000000000 vaddr 0x0000000000000000 paddr 0x0000000000000000 align 2**4
         filesz 0x0000000000000000 memsz 0x0000000000000000 flags rw-
   RELRO off    0x0000000000001d90 vaddr 0x0000000000201d90 paddr 0x0000000000201d90 align 2**0
         filesz 0x0000000000000270 memsz 0x0000000000000270 flags r--

动态节：
  NEEDED               libc.so.6
  INIT                 0x00000000000006a8
  FINI                 0x0000000000000cb4
  INIT_ARRAY           0x0000000000201d90
  INIT_ARRAYSZ         0x0000000000000008
  FINI_ARRAY           0x0000000000201d98
  FINI_ARRAYSZ         0x0000000000000008
  GNU_HASH             0x0000000000000298
  STRTAB               0x0000000000000430
  SYMTAB               0x00000000000002c8
  STRSZ                0x00000000000000bf
  SYMENT               0x0000000000000018
  DEBUG                0x0000000000000000
  PLTGOT               0x0000000000201f90
  PLTRELSZ             0x0000000000000030
  PLTREL               0x0000000000000007
  JMPREL               0x0000000000000678
  RELA                 0x0000000000000540
  RELASZ               0x0000000000000138
  RELAENT              0x0000000000000018
  FLAGS                0x0000000000000008
  FLAGS_1              0x0000000008000001
  VERNEED              0x0000000000000510
  VERNEEDNUM           0x0000000000000001
  VERSYM               0x00000000000004f0
  RELACOUNT            0x0000000000000003

版本引用：
  required from libc.so.6:
    0x0d696914 0x00 03 GLIBC_2.4
    0x09691a75 0x00 02 GLIBC_2.2.5

节：
Idx Name          Size      VMA               LMA               File off  Algn
  0 .interp       0000001c  0000000000000238  0000000000000238  00000238  2**0
                  CONTENTS, ALLOC, LOAD, READONLY, DATA
  1 .note.ABI-tag 00000020  0000000000000254  0000000000000254  00000254  2**2
                  CONTENTS, ALLOC, LOAD, READONLY, DATA
  2 .note.gnu.build-id 00000024  0000000000000274  0000000000000274  00000274  2**2
                  CONTENTS, ALLOC, LOAD, READONLY, DATA
  3 .gnu.hash     00000030  0000000000000298  0000000000000298  00000298  2**3
                  CONTENTS, ALLOC, LOAD, READONLY, DATA
  4 .dynsym       00000168  00000000000002c8  00000000000002c8  000002c8  2**3
                  CONTENTS, ALLOC, LOAD, READONLY, DATA
  5 .dynstr       000000bf  0000000000000430  0000000000000430  00000430  2**0
                  CONTENTS, ALLOC, LOAD, READONLY, DATA
  6 .gnu.version  0000001e  00000000000004f0  00000000000004f0  000004f0  2**1
                  CONTENTS, ALLOC, LOAD, READONLY, DATA
  7 .gnu.version_r 00000030  0000000000000510  0000000000000510  00000510  2**3
                  CONTENTS, ALLOC, LOAD, READONLY, DATA
  8 .rela.dyn     00000138  0000000000000540  0000000000000540  00000540  2**3
                  CONTENTS, ALLOC, LOAD, READONLY, DATA
  9 .rela.plt     00000030  0000000000000678  0000000000000678  00000678  2**3
                  CONTENTS, ALLOC, LOAD, READONLY, DATA
 10 .init         00000017  00000000000006a8  00000000000006a8  000006a8  2**2
                  CONTENTS, ALLOC, LOAD, READONLY, CODE
 11 .plt          00000030  00000000000006c0  00000000000006c0  000006c0  2**4
                  CONTENTS, ALLOC, LOAD, READONLY, CODE
 12 .plt.got      00000020  00000000000006f0  00000000000006f0  000006f0  2**3
                  CONTENTS, ALLOC, LOAD, READONLY, CODE
 13 .text         000005a2  0000000000000710  0000000000000710  00000710  2**4
                  CONTENTS, ALLOC, LOAD, READONLY, CODE
 14 .fini         00000009  0000000000000cb4  0000000000000cb4  00000cb4  2**2
                  CONTENTS, ALLOC, LOAD, READONLY, CODE
 15 .rodata       00000106  0000000000000cc0  0000000000000cc0  00000cc0  2**2
                  CONTENTS, ALLOC, LOAD, READONLY, DATA
 16 .eh_frame_hdr 0000004c  0000000000000dc8  0000000000000dc8  00000dc8  2**2
                  CONTENTS, ALLOC, LOAD, READONLY, DATA
 17 .eh_frame     00000148  0000000000000e18  0000000000000e18  00000e18  2**3
                  CONTENTS, ALLOC, LOAD, READONLY, DATA
 18 .init_array   00000008  0000000000201d90  0000000000201d90  00001d90  2**3
                  CONTENTS, ALLOC, LOAD, DATA
 19 .fini_array   00000008  0000000000201d98  0000000000201d98  00001d98  2**3
                  CONTENTS, ALLOC, LOAD, DATA
 20 .dynamic      000001f0  0000000000201da0  0000000000201da0  00001da0  2**3
                  CONTENTS, ALLOC, LOAD, DATA
 21 .got          00000070  0000000000201f90  0000000000201f90  00001f90  2**3
                  CONTENTS, ALLOC, LOAD, DATA
 22 .data         00000010  0000000000202000  0000000000202000  00002000  2**3
                  CONTENTS, ALLOC, LOAD, DATA
 23 .bss          41000020  0000000000202020  0000000000202020  00002010  2**5
                  ALLOC
 24 .comment      00000029  0000000000000000  0000000000000000  00002010  2**0
                  CONTENTS, READONLY
SYMBOL TABLE:
0000000000000238 l    d  .interp	0000000000000000              .interp
0000000000000254 l    d  .note.ABI-tag	0000000000000000              .note.ABI-tag
0000000000000274 l    d  .note.gnu.build-id	0000000000000000              .note.gnu.build-id
0000000000000298 l    d  .gnu.hash	0000000000000000              .gnu.hash
00000000000002c8 l    d  .dynsym	0000000000000000              .dynsym
0000000000000430 l    d  .dynstr	0000000000000000              .dynstr
00000000000004f0 l    d  .gnu.version	0000000000000000              .gnu.version
0000000000000510 l    d  .gnu.version_r	0000000000000000              .gnu.version_r
0000000000000540 l    d  .rela.dyn	0000000000000000              .rela.dyn
0000000000000678 l    d  .rela.plt	0000000000000000              .rela.plt
00000000000006a8 l    d  .init	0000000000000000              .init
00000000000006c0 l    d  .plt	0000000000000000              .plt
00000000000006f0 l    d  .plt.got	0000000000000000              .plt.got
0000000000000710 l    d  .text	0000000000000000              .text
0000000000000cb4 l    d  .fini	0000000000000000              .fini
0000000000000cc0 l    d  .rodata	0000000000000000              .rodata
0000000000000dc8 l    d  .eh_frame_hdr	0000000000000000              .eh_frame_hdr
0000000000000e18 l    d  .eh_frame	0000000000000000              .eh_frame
0000000000201d90 l    d  .init_array	0000000000000000              .init_array
0000000000201d98 l    d  .fini_array	0000000000000000              .fini_array
0000000000201da0 l    d  .dynamic	0000000000000000              .dynamic
0000000000201f90 l    d  .got	0000000000000000              .got
0000000000202000 l    d  .data	0000000000000000              .data
0000000000202020 l    d  .bss	0000000000000000              .bss
0000000000000000 l    d  .comment	0000000000000000              .comment
0000000000000000 l    df *ABS*	0000000000000000              crtstuff.c
0000000000000740 l     F .text	0000000000000000              deregister_tm_clones
0000000000000780 l     F .text	0000000000000000              register_tm_clones
00000000000007d0 l     F .text	0000000000000000              __do_global_dtors_aux
0000000000202028 l     O .bss	0000000000000001              completed.7698
0000000000201d98 l     O .fini_array	0000000000000000              __do_global_dtors_aux_fini_array_entry
0000000000000810 l     F .text	0000000000000000              frame_dummy
0000000000201d90 l     O .init_array	0000000000000000              __frame_dummy_init_array_entry
0000000000000000 l    df *ABS*	0000000000000000              linkaddress.c
000000000000081a l     F .text	0000000000000033              show_pointer
0000000000000000 l    df *ABS*	0000000000000000              crtstuff.c
0000000000000f5c l     O .eh_frame	0000000000000000              __FRAME_END__
0000000000000000 l    df *ABS*	0000000000000000              
0000000000201d98 l       .init_array	0000000000000000              __init_array_end
0000000000201da0 l     O .dynamic	0000000000000000              _DYNAMIC
0000000000201d90 l       .init_array	0000000000000000              __init_array_start
0000000000000dc8 l       .eh_frame_hdr	0000000000000000              __GNU_EH_FRAME_HDR
0000000000201f90 l     O .got	0000000000000000              _GLOBAL_OFFSET_TABLE_
0000000000000cb0 g     F .text	0000000000000002              __libc_csu_fini
0000000000000000       F *UND*	0000000000000000              free@@GLIBC_2.2.5
0000000000000000  w      *UND*	0000000000000000              _ITM_deregisterTMCloneTable
0000000000202000  w      .data	0000000000000000              data_start
0000000000000000       F *UND*	0000000000000000              puts@@GLIBC_2.2.5
000000000000084d g     F .text	000000000000000b              useless
0000000000202010 g       .data	0000000000000000              _edata
0000000000000cb4 g     F .fini	0000000000000000              _fini
000000000020202c g     O .bss	0000000000000004              global
0000000000000000       F *UND*	0000000000000000              __stack_chk_fail@@GLIBC_2.4
0000000000000000       F *UND*	0000000000000000              printf@@GLIBC_2.2.5
0000000000000000       F *UND*	0000000000000000              __libc_start_main@@GLIBC_2.2.5
0000000000202000 g       .data	0000000000000000              __data_start
0000000000000000  w      *UND*	0000000000000000              __gmon_start__
0000000000202008 g     O .data	0000000000000000              .hidden __dso_handle
0000000000000cc0 g     O .rodata	0000000000000004              _IO_stdin_used
0000000000000c40 g     F .text	0000000000000065              __libc_csu_init
0000000000000000       F *UND*	0000000000000000              malloc@@GLIBC_2.2.5
0000000000202040 g     O .bss	0000000040000000              huge_array
0000000041202040 g       .bss	0000000000000000              _end
0000000000000710 g     F .text	000000000000002b              _start
0000000000202010 g       .bss	0000000000000000              __bss_start
0000000000000858 g     F .text	00000000000003db              main
0000000040202040 g     O .bss	0000000001000000              big_array
0000000000202020 g     O .bss	0000000000000008              __environ@@GLIBC_2.2.5
0000000000000000       F *UND*	0000000000000000              exit@@GLIBC_2.2.5
0000000000202010 g     O .data	0000000000000000              .hidden __TMC_END__
0000000000000000  w      *UND*	0000000000000000              _ITM_registerTMCloneTable
0000000000000000  w    F *UND*	0000000000000000              __cxa_finalize@@GLIBC_2.2.5
00000000000006a8 g     F .init	0000000000000000              _init



Disassembly of section .init:

00000000000006a8 <_init>:
 6a8:	48 83 ec 08          	sub    $0x8,%rsp
 6ac:	48 8b 05 25 19 20 00 	mov    0x201925(%rip),%rax        # 201fd8 <__gmon_start__>
 6b3:	48 85 c0             	test   %rax,%rax
 6b6:	74 02                	je     6ba <_init+0x12>
 6b8:	ff d0                	callq  *%rax
 6ba:	48 83 c4 08          	add    $0x8,%rsp
 6be:	c3                   	retq   

Disassembly of section .plt:

00000000000006c0 <.plt>:
 6c0:	ff 35 d2 18 20 00    	pushq  0x2018d2(%rip)        # 201f98 <_GLOBAL_OFFSET_TABLE_+0x8>
 6c6:	ff 25 d4 18 20 00    	jmpq   *0x2018d4(%rip)        # 201fa0 <_GLOBAL_OFFSET_TABLE_+0x10>
 6cc:	0f 1f 40 00          	nopl   0x0(%rax)

00000000000006d0 <puts@plt>:
 6d0:	ff 25 d2 18 20 00    	jmpq   *0x2018d2(%rip)        # 201fa8 <puts@GLIBC_2.2.5>
 6d6:	68 00 00 00 00       	pushq  $0x0
 6db:	e9 e0 ff ff ff       	jmpq   6c0 <.plt>

00000000000006e0 <__stack_chk_fail@plt>:
 6e0:	ff 25 ca 18 20 00    	jmpq   *0x2018ca(%rip)        # 201fb0 <__stack_chk_fail@GLIBC_2.4>
 6e6:	68 01 00 00 00       	pushq  $0x1
 6eb:	e9 d0 ff ff ff       	jmpq   6c0 <.plt>

Disassembly of section .plt.got:

00000000000006f0 <free@plt>:
 6f0:	ff 25 c2 18 20 00    	jmpq   *0x2018c2(%rip)        # 201fb8 <free@GLIBC_2.2.5>
 6f6:	66 90                	xchg   %ax,%ax

00000000000006f8 <printf@plt>:
 6f8:	ff 25 ca 18 20 00    	jmpq   *0x2018ca(%rip)        # 201fc8 <printf@GLIBC_2.2.5>
 6fe:	66 90                	xchg   %ax,%ax

0000000000000700 <malloc@plt>:
 700:	ff 25 da 18 20 00    	jmpq   *0x2018da(%rip)        # 201fe0 <malloc@GLIBC_2.2.5>
 706:	66 90                	xchg   %ax,%ax

0000000000000708 <__cxa_finalize@plt>:
 708:	ff 25 ea 18 20 00    	jmpq   *0x2018ea(%rip)        # 201ff8 <__cxa_finalize@GLIBC_2.2.5>
 70e:	66 90                	xchg   %ax,%ax

Disassembly of section .text:

0000000000000710 <_start>:
 710:	31 ed                	xor    %ebp,%ebp
 712:	49 89 d1             	mov    %rdx,%r9
 715:	5e                   	pop    %rsi
 716:	48 89 e2             	mov    %rsp,%rdx
 719:	48 83 e4 f0          	and    $0xfffffffffffffff0,%rsp
 71d:	50                   	push   %rax
 71e:	54                   	push   %rsp
 71f:	4c 8d 05 8a 05 00 00 	lea    0x58a(%rip),%r8        # cb0 <__libc_csu_fini>
 726:	48 8d 0d 13 05 00 00 	lea    0x513(%rip),%rcx        # c40 <__libc_csu_init>
 72d:	48 8d 3d 24 01 00 00 	lea    0x124(%rip),%rdi        # 858 <main>
 734:	ff 15 96 18 20 00    	callq  *0x201896(%rip)        # 201fd0 <__libc_start_main@GLIBC_2.2.5>
 73a:	f4                   	hlt    
 73b:	0f 1f 44 00 00       	nopl   0x0(%rax,%rax,1)

0000000000000740 <deregister_tm_clones>:
 740:	48 8d 3d c9 18 20 00 	lea    0x2018c9(%rip),%rdi        # 202010 <__TMC_END__>
 747:	55                   	push   %rbp
 748:	48 8d 05 c1 18 20 00 	lea    0x2018c1(%rip),%rax        # 202010 <__TMC_END__>
 74f:	48 39 f8             	cmp    %rdi,%rax
 752:	48 89 e5             	mov    %rsp,%rbp
 755:	74 19                	je     770 <deregister_tm_clones+0x30>
 757:	48 8b 05 62 18 20 00 	mov    0x201862(%rip),%rax        # 201fc0 <_ITM_deregisterTMCloneTable>
 75e:	48 85 c0             	test   %rax,%rax
 761:	74 0d                	je     770 <deregister_tm_clones+0x30>
 763:	5d                   	pop    %rbp
 764:	ff e0                	jmpq   *%rax
 766:	66 2e 0f 1f 84 00 00 	nopw   %cs:0x0(%rax,%rax,1)
 76d:	00 00 00 
 770:	5d                   	pop    %rbp
 771:	c3                   	retq   
 772:	0f 1f 40 00          	nopl   0x0(%rax)
 776:	66 2e 0f 1f 84 00 00 	nopw   %cs:0x0(%rax,%rax,1)
 77d:	00 00 00 

0000000000000780 <register_tm_clones>:
 780:	48 8d 3d 89 18 20 00 	lea    0x201889(%rip),%rdi        # 202010 <__TMC_END__>
 787:	48 8d 35 82 18 20 00 	lea    0x201882(%rip),%rsi        # 202010 <__TMC_END__>
 78e:	55                   	push   %rbp
 78f:	48 29 fe             	sub    %rdi,%rsi
 792:	48 89 e5             	mov    %rsp,%rbp
 795:	48 c1 fe 03          	sar    $0x3,%rsi
 799:	48 89 f0             	mov    %rsi,%rax
 79c:	48 c1 e8 3f          	shr    $0x3f,%rax
 7a0:	48 01 c6             	add    %rax,%rsi
 7a3:	48 d1 fe             	sar    %rsi
 7a6:	74 18                	je     7c0 <register_tm_clones+0x40>
 7a8:	48 8b 05 41 18 20 00 	mov    0x201841(%rip),%rax        # 201ff0 <_ITM_registerTMCloneTable>
 7af:	48 85 c0             	test   %rax,%rax
 7b2:	74 0c                	je     7c0 <register_tm_clones+0x40>
 7b4:	5d                   	pop    %rbp
 7b5:	ff e0                	jmpq   *%rax
 7b7:	66 0f 1f 84 00 00 00 	nopw   0x0(%rax,%rax,1)
 7be:	00 00 
 7c0:	5d                   	pop    %rbp
 7c1:	c3                   	retq   
 7c2:	0f 1f 40 00          	nopl   0x0(%rax)
 7c6:	66 2e 0f 1f 84 00 00 	nopw   %cs:0x0(%rax,%rax,1)
 7cd:	00 00 00 

00000000000007d0 <__do_global_dtors_aux>:
 7d0:	80 3d 51 18 20 00 00 	cmpb   $0x0,0x201851(%rip)        # 202028 <completed.7698>
 7d7:	75 2f                	jne    808 <__do_global_dtors_aux+0x38>
 7d9:	48 83 3d 17 18 20 00 	cmpq   $0x0,0x201817(%rip)        # 201ff8 <__cxa_finalize@GLIBC_2.2.5>
 7e0:	00 
 7e1:	55                   	push   %rbp
 7e2:	48 89 e5             	mov    %rsp,%rbp
 7e5:	74 0c                	je     7f3 <__do_global_dtors_aux+0x23>
 7e7:	48 8b 3d 1a 18 20 00 	mov    0x20181a(%rip),%rdi        # 202008 <__dso_handle>
 7ee:	e8 15 ff ff ff       	callq  708 <__cxa_finalize@plt>
 7f3:	e8 48 ff ff ff       	callq  740 <deregister_tm_clones>
 7f8:	c6 05 29 18 20 00 01 	movb   $0x1,0x201829(%rip)        # 202028 <completed.7698>
 7ff:	5d                   	pop    %rbp
 800:	c3                   	retq   
 801:	0f 1f 80 00 00 00 00 	nopl   0x0(%rax)
 808:	f3 c3                	repz retq 
 80a:	66 0f 1f 44 00 00    	nopw   0x0(%rax,%rax,1)

0000000000000810 <frame_dummy>:
 810:	55                   	push   %rbp
 811:	48 89 e5             	mov    %rsp,%rbp
 814:	5d                   	pop    %rbp
 815:	e9 66 ff ff ff       	jmpq   780 <register_tm_clones>

000000000000081a <show_pointer>:
 81a:	55                   	push   %rbp
 81b:	48 89 e5             	mov    %rsp,%rbp
 81e:	48 83 ec 10          	sub    $0x10,%rsp
 822:	48 89 7d f8          	mov    %rdi,-0x8(%rbp)
 826:	48 89 75 f0          	mov    %rsi,-0x10(%rbp)
 82a:	48 8b 4d f8          	mov    -0x8(%rbp),%rcx
 82e:	48 8b 55 f8          	mov    -0x8(%rbp),%rdx
 832:	48 8b 45 f0          	mov    -0x10(%rbp),%rax
 836:	48 89 c6             	mov    %rax,%rsi
 839:	48 8d 3d 84 04 00 00 	lea    0x484(%rip),%rdi        # cc4 <_IO_stdin_used+0x4>
 840:	b8 00 00 00 00       	mov    $0x0,%eax
 845:	e8 ae fe ff ff       	callq  6f8 <printf@plt>
 84a:	90                   	nop
 84b:	c9                   	leaveq 
 84c:	c3                   	retq   

000000000000084d <useless>:
 84d:	55                   	push   %rbp
 84e:	48 89 e5             	mov    %rsp,%rbp
 851:	b8 00 00 00 00       	mov    $0x0,%eax
 856:	5d                   	pop    %rbp
 857:	c3                   	retq   

0000000000000858 <main>:
 858:	55                   	push   %rbp
 859:	48 89 e5             	mov    %rsp,%rbp
 85c:	48 83 ec 50          	sub    $0x50,%rsp
 860:	89 7d bc             	mov    %edi,-0x44(%rbp)
 863:	48 89 75 b0          	mov    %rsi,-0x50(%rbp)
 867:	64 48 8b 04 25 28 00 	mov    %fs:0x28,%rax
 86e:	00 00 
 870:	48 89 45 f8          	mov    %rax,-0x8(%rbp)
 874:	31 c0                	xor    %eax,%eax
 876:	48 8b 05 a3 17 20 00 	mov    0x2017a3(%rip),%rax        # 202020 <__environ@@GLIBC_2.2.5>
 87d:	48 89 45 c8          	mov    %rax,-0x38(%rbp)
 881:	c7 45 c0 00 00 00 00 	movl   $0x0,-0x40(%rbp)
 888:	8b 45 bc             	mov    -0x44(%rbp),%eax
 88b:	83 f8 04             	cmp    $0x4,%eax
 88e:	74 16                	je     8a6 <main+0x4e>
 890:	48 8d 3d 38 04 00 00 	lea    0x438(%rip),%rdi        # ccf <_IO_stdin_used+0xf>
 897:	e8 34 fe ff ff       	callq  6d0 <puts@plt>
 89c:	b8 01 00 00 00       	mov    $0x1,%eax
 8a1:	e9 77 03 00 00       	jmpq   c1d <main+0x3c5>
 8a6:	b8 00 00 00 00       	mov    $0x0,%eax
 8ab:	e8 9d ff ff ff       	callq  84d <useless>
 8b0:	48 8b 45 c8          	mov    -0x38(%rbp),%rax
 8b4:	48 8d 35 30 04 00 00 	lea    0x430(%rip),%rsi        # ceb <_IO_stdin_used+0x2b>
 8bb:	48 89 c7             	mov    %rax,%rdi
 8be:	e8 57 ff ff ff       	callq  81a <show_pointer>
 8c3:	c7 45 c4 00 00 00 00 	movl   $0x0,-0x3c(%rbp)
 8ca:	eb 44                	jmp    910 <main+0xb8>
 8cc:	8b 45 c4             	mov    -0x3c(%rbp),%eax
 8cf:	89 c6                	mov    %eax,%esi
 8d1:	48 8d 3d 17 04 00 00 	lea    0x417(%rip),%rdi        # cef <_IO_stdin_used+0x2f>
 8d8:	b8 00 00 00 00       	mov    $0x0,%eax
 8dd:	e8 16 fe ff ff       	callq  6f8 <printf@plt>
 8e2:	48 8b 45 c8          	mov    -0x38(%rbp),%rax
 8e6:	48 8b 00             	mov    (%rax),%rax
 8e9:	48 8d 35 08 04 00 00 	lea    0x408(%rip),%rsi        # cf8 <_IO_stdin_used+0x38>
 8f0:	48 89 c7             	mov    %rax,%rdi
 8f3:	e8 22 ff ff ff       	callq  81a <show_pointer>
 8f8:	48 8b 45 c8          	mov    -0x38(%rbp),%rax
 8fc:	48 8b 00             	mov    (%rax),%rax
 8ff:	48 89 c7             	mov    %rax,%rdi
 902:	e8 c9 fd ff ff       	callq  6d0 <puts@plt>
 907:	48 83 45 c8 08       	addq   $0x8,-0x38(%rbp)
 90c:	83 45 c4 01          	addl   $0x1,-0x3c(%rbp)
 910:	48 8b 45 c8          	mov    -0x38(%rbp),%rax
 914:	48 8b 00             	mov    (%rax),%rax
 917:	48 85 c0             	test   %rax,%rax
 91a:	75 b0                	jne    8cc <main+0x74>
 91c:	bf 00 00 00 10       	mov    $0x10000000,%edi
 921:	e8 da fd ff ff       	callq  700 <malloc@plt>
 926:	48 89 45 d0          	mov    %rax,-0x30(%rbp)
 92a:	bf 00 00 02 00       	mov    $0x20000,%edi
 92f:	e8 cc fd ff ff       	callq  700 <malloc@plt>
 934:	48 89 45 d8          	mov    %rax,-0x28(%rbp)
 938:	bf 01 00 02 00       	mov    $0x20001,%edi
 93d:	e8 be fd ff ff       	callq  700 <malloc@plt>
 942:	48 89 45 e0          	mov    %rax,-0x20(%rbp)
 946:	bf 00 00 00 40       	mov    $0x40000000,%edi
 94b:	e8 b0 fd ff ff       	callq  700 <malloc@plt>
 950:	48 89 45 e8          	mov    %rax,-0x18(%rbp)
 954:	bf 00 00 00 80       	mov    $0x80000000,%edi
 959:	e8 a2 fd ff ff       	callq  700 <malloc@plt>
 95e:	48 89 45 f0          	mov    %rax,-0x10(%rbp)
 962:	48 8d 35 94 03 00 00 	lea    0x394(%rip),%rsi        # cfd <_IO_stdin_used+0x3d>
 969:	48 8d 3d d0 16 20 40 	lea    0x402016d0(%rip),%rdi        # 40202040 <big_array>
 970:	e8 a5 fe ff ff       	callq  81a <show_pointer>
 975:	48 8d 35 8b 03 00 00 	lea    0x38b(%rip),%rsi        # d07 <_IO_stdin_used+0x47>
 97c:	48 8d 3d bd 16 20 00 	lea    0x2016bd(%rip),%rdi        # 202040 <huge_array>
 983:	e8 92 fe ff ff       	callq  81a <show_pointer>
 988:	48 8d 45 c0          	lea    -0x40(%rbp),%rax
 98c:	48 8d 35 7f 03 00 00 	lea    0x37f(%rip),%rsi        # d12 <_IO_stdin_used+0x52>
 993:	48 89 c7             	mov    %rax,%rdi
 996:	e8 7f fe ff ff       	callq  81a <show_pointer>
 99b:	48 8d 35 76 03 00 00 	lea    0x376(%rip),%rsi        # d18 <_IO_stdin_used+0x58>
 9a2:	48 8d 3d 83 16 20 00 	lea    0x201683(%rip),%rdi        # 20202c <global>
 9a9:	e8 6c fe ff ff       	callq  81a <show_pointer>
 9ae:	48 8d 45 bc          	lea    -0x44(%rbp),%rax
 9b2:	48 8d 35 66 03 00 00 	lea    0x366(%rip),%rsi        # d1f <_IO_stdin_used+0x5f>
 9b9:	48 89 c7             	mov    %rax,%rdi
 9bc:	e8 59 fe ff ff       	callq  81a <show_pointer>
 9c1:	48 8b 45 b0          	mov    -0x50(%rbp),%rax
 9c5:	48 8d 35 58 03 00 00 	lea    0x358(%rip),%rsi        # d24 <_IO_stdin_used+0x64>
 9cc:	48 89 c7             	mov    %rax,%rdi
 9cf:	e8 46 fe ff ff       	callq  81a <show_pointer>
 9d4:	48 8b 45 b0          	mov    -0x50(%rbp),%rax
 9d8:	48 8b 00             	mov    (%rax),%rax
 9db:	48 89 c6             	mov    %rax,%rsi
 9de:	48 8d 3d 44 03 00 00 	lea    0x344(%rip),%rdi        # d29 <_IO_stdin_used+0x69>
 9e5:	b8 00 00 00 00       	mov    $0x0,%eax
 9ea:	e8 09 fd ff ff       	callq  6f8 <printf@plt>
 9ef:	48 8b 45 b0          	mov    -0x50(%rbp),%rax
 9f3:	48 83 c0 08          	add    $0x8,%rax
 9f7:	48 8b 00             	mov    (%rax),%rax
 9fa:	48 89 c6             	mov    %rax,%rsi
 9fd:	48 8d 3d 34 03 00 00 	lea    0x334(%rip),%rdi        # d38 <_IO_stdin_used+0x78>
 a04:	b8 00 00 00 00       	mov    $0x0,%eax
 a09:	e8 ea fc ff ff       	callq  6f8 <printf@plt>
 a0e:	48 8b 45 b0          	mov    -0x50(%rbp),%rax
 a12:	48 83 c0 10          	add    $0x10,%rax
 a16:	48 8b 00             	mov    (%rax),%rax
 a19:	48 89 c6             	mov    %rax,%rsi
 a1c:	48 8d 3d 24 03 00 00 	lea    0x324(%rip),%rdi        # d47 <_IO_stdin_used+0x87>
 a23:	b8 00 00 00 00       	mov    $0x0,%eax
 a28:	e8 cb fc ff ff       	callq  6f8 <printf@plt>
 a2d:	48 8b 45 b0          	mov    -0x50(%rbp),%rax
 a31:	48 83 c0 18          	add    $0x18,%rax
 a35:	48 8b 00             	mov    (%rax),%rax
 a38:	48 89 c6             	mov    %rax,%rsi
 a3b:	48 8d 3d 14 03 00 00 	lea    0x314(%rip),%rdi        # d56 <_IO_stdin_used+0x96>
 a42:	b8 00 00 00 00       	mov    $0x0,%eax
 a47:	e8 ac fc ff ff       	callq  6f8 <printf@plt>
 a4c:	48 8b 45 b0          	mov    -0x50(%rbp),%rax
 a50:	48 8b 00             	mov    (%rax),%rax
 a53:	48 8d 35 0b 03 00 00 	lea    0x30b(%rip),%rsi        # d65 <_IO_stdin_used+0xa5>
 a5a:	48 89 c7             	mov    %rax,%rdi
 a5d:	e8 b8 fd ff ff       	callq  81a <show_pointer>
 a62:	48 8b 45 b0          	mov    -0x50(%rbp),%rax
 a66:	48 8b 00             	mov    (%rax),%rax
 a69:	48 89 c7             	mov    %rax,%rdi
 a6c:	e8 5f fc ff ff       	callq  6d0 <puts@plt>
 a71:	48 8b 45 b0          	mov    -0x50(%rbp),%rax
 a75:	48 83 c0 08          	add    $0x8,%rax
 a79:	48 8b 00             	mov    (%rax),%rax
 a7c:	48 8d 35 ea 02 00 00 	lea    0x2ea(%rip),%rsi        # d6d <_IO_stdin_used+0xad>
 a83:	48 89 c7             	mov    %rax,%rdi
 a86:	e8 8f fd ff ff       	callq  81a <show_pointer>
 a8b:	48 8b 45 b0          	mov    -0x50(%rbp),%rax
 a8f:	48 83 c0 08          	add    $0x8,%rax
 a93:	48 8b 00             	mov    (%rax),%rax
 a96:	48 89 c7             	mov    %rax,%rdi
 a99:	e8 32 fc ff ff       	callq  6d0 <puts@plt>
 a9e:	48 8b 45 b0          	mov    -0x50(%rbp),%rax
 aa2:	48 83 c0 10          	add    $0x10,%rax
 aa6:	48 8b 00             	mov    (%rax),%rax
 aa9:	48 8d 35 c5 02 00 00 	lea    0x2c5(%rip),%rsi        # d75 <_IO_stdin_used+0xb5>
 ab0:	48 89 c7             	mov    %rax,%rdi
 ab3:	e8 62 fd ff ff       	callq  81a <show_pointer>
 ab8:	48 8b 45 b0          	mov    -0x50(%rbp),%rax
 abc:	48 83 c0 10          	add    $0x10,%rax
 ac0:	48 8b 00             	mov    (%rax),%rax
 ac3:	48 89 c7             	mov    %rax,%rdi
 ac6:	e8 05 fc ff ff       	callq  6d0 <puts@plt>
 acb:	48 8b 45 b0          	mov    -0x50(%rbp),%rax
 acf:	48 83 c0 18          	add    $0x18,%rax
 ad3:	48 8b 00             	mov    (%rax),%rax
 ad6:	48 8d 35 a0 02 00 00 	lea    0x2a0(%rip),%rsi        # d7d <_IO_stdin_used+0xbd>
 add:	48 89 c7             	mov    %rax,%rdi
 ae0:	e8 35 fd ff ff       	callq  81a <show_pointer>
 ae5:	48 8b 45 b0          	mov    -0x50(%rbp),%rax
 ae9:	48 83 c0 18          	add    $0x18,%rax
 aed:	48 8b 00             	mov    (%rax),%rax
 af0:	48 89 c7             	mov    %rax,%rdi
 af3:	e8 d8 fb ff ff       	callq  6d0 <puts@plt>
 af8:	48 8b 45 d0          	mov    -0x30(%rbp),%rax
 afc:	48 8d 35 82 02 00 00 	lea    0x282(%rip),%rsi        # d85 <_IO_stdin_used+0xc5>
 b03:	48 89 c7             	mov    %rax,%rdi
 b06:	e8 0f fd ff ff       	callq  81a <show_pointer>
 b0b:	48 8b 45 d8          	mov    -0x28(%rbp),%rax
 b0f:	48 8d 35 72 02 00 00 	lea    0x272(%rip),%rsi        # d88 <_IO_stdin_used+0xc8>
 b16:	48 89 c7             	mov    %rax,%rdi
 b19:	e8 fc fc ff ff       	callq  81a <show_pointer>
 b1e:	48 8b 45 e0          	mov    -0x20(%rbp),%rax
 b22:	48 8d 35 62 02 00 00 	lea    0x262(%rip),%rsi        # d8b <_IO_stdin_used+0xcb>
 b29:	48 89 c7             	mov    %rax,%rdi
 b2c:	e8 e9 fc ff ff       	callq  81a <show_pointer>
 b31:	48 8b 45 e8          	mov    -0x18(%rbp),%rax
 b35:	48 8d 35 52 02 00 00 	lea    0x252(%rip),%rsi        # d8e <_IO_stdin_used+0xce>
 b3c:	48 89 c7             	mov    %rax,%rdi
 b3f:	e8 d6 fc ff ff       	callq  81a <show_pointer>
 b44:	48 8b 45 f0          	mov    -0x10(%rbp),%rax
 b48:	48 8d 35 42 02 00 00 	lea    0x242(%rip),%rsi        # d91 <_IO_stdin_used+0xd1>
 b4f:	48 89 c7             	mov    %rax,%rdi
 b52:	e8 c3 fc ff ff       	callq  81a <show_pointer>
 b57:	48 8d 35 36 02 00 00 	lea    0x236(%rip),%rsi        # d94 <_IO_stdin_used+0xd4>
 b5e:	48 8d 3d b5 fc ff ff 	lea    -0x34b(%rip),%rdi        # 81a <show_pointer>
 b65:	e8 b0 fc ff ff       	callq  81a <show_pointer>
 b6a:	48 8d 35 30 02 00 00 	lea    0x230(%rip),%rsi        # da1 <_IO_stdin_used+0xe1>
 b71:	48 8d 3d d5 fc ff ff 	lea    -0x32b(%rip),%rdi        # 84d <useless>
 b78:	e8 9d fc ff ff       	callq  81a <show_pointer>
 b7d:	48 8d 35 25 02 00 00 	lea    0x225(%rip),%rsi        # da9 <_IO_stdin_used+0xe9>
 b84:	48 8d 3d cd fc ff ff 	lea    -0x333(%rip),%rdi        # 858 <main>
 b8b:	e8 8a fc ff ff       	callq  81a <show_pointer>
 b90:	48 8d 35 17 02 00 00 	lea    0x217(%rip),%rsi        # dae <_IO_stdin_used+0xee>
 b97:	48 8b 05 4a 14 20 00 	mov    0x20144a(%rip),%rax        # 201fe8 <exit@GLIBC_2.2.5>
 b9e:	48 89 c7             	mov    %rax,%rdi
 ba1:	e8 74 fc ff ff       	callq  81a <show_pointer>
 ba6:	48 8d 35 06 02 00 00 	lea    0x206(%rip),%rsi        # db3 <_IO_stdin_used+0xf3>
 bad:	48 8b 05 14 14 20 00 	mov    0x201414(%rip),%rax        # 201fc8 <printf@GLIBC_2.2.5>
 bb4:	48 89 c7             	mov    %rax,%rdi
 bb7:	e8 5e fc ff ff       	callq  81a <show_pointer>
 bbc:	48 8d 35 f7 01 00 00 	lea    0x1f7(%rip),%rsi        # dba <_IO_stdin_used+0xfa>
 bc3:	48 8b 05 16 14 20 00 	mov    0x201416(%rip),%rax        # 201fe0 <malloc@GLIBC_2.2.5>
 bca:	48 89 c7             	mov    %rax,%rdi
 bcd:	e8 48 fc ff ff       	callq  81a <show_pointer>
 bd2:	48 8d 35 e8 01 00 00 	lea    0x1e8(%rip),%rsi        # dc1 <_IO_stdin_used+0x101>
 bd9:	48 8b 05 d8 13 20 00 	mov    0x2013d8(%rip),%rax        # 201fb8 <free@GLIBC_2.2.5>
 be0:	48 89 c7             	mov    %rax,%rdi
 be3:	e8 32 fc ff ff       	callq  81a <show_pointer>
 be8:	48 8b 45 d0          	mov    -0x30(%rbp),%rax
 bec:	48 89 c7             	mov    %rax,%rdi
 bef:	e8 fc fa ff ff       	callq  6f0 <free@plt>
 bf4:	48 8b 45 d8          	mov    -0x28(%rbp),%rax
 bf8:	48 89 c7             	mov    %rax,%rdi
 bfb:	e8 f0 fa ff ff       	callq  6f0 <free@plt>
 c00:	48 8b 45 e0          	mov    -0x20(%rbp),%rax
 c04:	48 89 c7             	mov    %rax,%rdi
 c07:	e8 e4 fa ff ff       	callq  6f0 <free@plt>
 c0c:	48 8b 45 e8          	mov    -0x18(%rbp),%rax
 c10:	48 89 c7             	mov    %rax,%rdi
 c13:	e8 d8 fa ff ff       	callq  6f0 <free@plt>
 c18:	b8 00 00 00 00       	mov    $0x0,%eax
 c1d:	48 8b 55 f8          	mov    -0x8(%rbp),%rdx
 c21:	64 48 33 14 25 28 00 	xor    %fs:0x28,%rdx
 c28:	00 00 
 c2a:	74 05                	je     c31 <main+0x3d9>
 c2c:	e8 af fa ff ff       	callq  6e0 <__stack_chk_fail@plt>
 c31:	c9                   	leaveq 
 c32:	c3                   	retq   
 c33:	66 2e 0f 1f 84 00 00 	nopw   %cs:0x0(%rax,%rax,1)
 c3a:	00 00 00 
 c3d:	0f 1f 00             	nopl   (%rax)

0000000000000c40 <__libc_csu_init>:
 c40:	41 57                	push   %r15
 c42:	41 56                	push   %r14
 c44:	49 89 d7             	mov    %rdx,%r15
 c47:	41 55                	push   %r13
 c49:	41 54                	push   %r12
 c4b:	4c 8d 25 3e 11 20 00 	lea    0x20113e(%rip),%r12        # 201d90 <__frame_dummy_init_array_entry>
 c52:	55                   	push   %rbp
 c53:	48 8d 2d 3e 11 20 00 	lea    0x20113e(%rip),%rbp        # 201d98 <__init_array_end>
 c5a:	53                   	push   %rbx
 c5b:	41 89 fd             	mov    %edi,%r13d
 c5e:	49 89 f6             	mov    %rsi,%r14
 c61:	4c 29 e5             	sub    %r12,%rbp
 c64:	48 83 ec 08          	sub    $0x8,%rsp
 c68:	48 c1 fd 03          	sar    $0x3,%rbp
 c6c:	e8 37 fa ff ff       	callq  6a8 <_init>
 c71:	48 85 ed             	test   %rbp,%rbp
 c74:	74 20                	je     c96 <__libc_csu_init+0x56>
 c76:	31 db                	xor    %ebx,%ebx
 c78:	0f 1f 84 00 00 00 00 	nopl   0x0(%rax,%rax,1)
 c7f:	00 
 c80:	4c 89 fa             	mov    %r15,%rdx
 c83:	4c 89 f6             	mov    %r14,%rsi
 c86:	44 89 ef             	mov    %r13d,%edi
 c89:	41 ff 14 dc          	callq  *(%r12,%rbx,8)
 c8d:	48 83 c3 01          	add    $0x1,%rbx
 c91:	48 39 dd             	cmp    %rbx,%rbp
 c94:	75 ea                	jne    c80 <__libc_csu_init+0x40>
 c96:	48 83 c4 08          	add    $0x8,%rsp
 c9a:	5b                   	pop    %rbx
 c9b:	5d                   	pop    %rbp
 c9c:	41 5c                	pop    %r12
 c9e:	41 5d                	pop    %r13
 ca0:	41 5e                	pop    %r14
 ca2:	41 5f                	pop    %r15
 ca4:	c3                   	retq   
 ca5:	90                   	nop
 ca6:	66 2e 0f 1f 84 00 00 	nopw   %cs:0x0(%rax,%rax,1)
 cad:	00 00 00 

0000000000000cb0 <__libc_csu_fini>:
 cb0:	f3 c3                	repz retq 

Disassembly of section .fini:

0000000000000cb4 <_fini>:
 cb4:	48 83 ec 08          	sub    $0x8,%rsp
 cb8:	48 83 c4 08          	add    $0x8,%rsp
 cbc:	c3                   	retq   
