
bomb：     文件格式 elf64-x86-64
bomb
体系结构：i386:x86-64， 标志 0x00000112：
EXEC_P, HAS_SYMS, D_PAGED
起始地址 0x00000000004011c0

程序头：
    PHDR off    0x0000000000000040 vaddr 0x0000000000400040 paddr 0x0000000000400040 align 2**3
         filesz 0x0000000000000268 memsz 0x0000000000000268 flags r--
  INTERP off    0x00000000000002a8 vaddr 0x00000000004002a8 paddr 0x00000000004002a8 align 2**0
         filesz 0x000000000000001c memsz 0x000000000000001c flags r--
    LOAD off    0x0000000000000000 vaddr 0x0000000000400000 paddr 0x0000000000400000 align 2**12
         filesz 0x0000000000000ae8 memsz 0x0000000000000ae8 flags r--
    LOAD off    0x0000000000001000 vaddr 0x0000000000401000 paddr 0x0000000000401000 align 2**12
         filesz 0x0000000000001855 memsz 0x0000000000001855 flags r-x
    LOAD off    0x0000000000003000 vaddr 0x0000000000403000 paddr 0x0000000000403000 align 2**12
         filesz 0x0000000000000b88 memsz 0x0000000000000b88 flags r--
    LOAD off    0x0000000000003e10 vaddr 0x0000000000404e10 paddr 0x0000000000404e10 align 2**12
         filesz 0x0000000000000930 memsz 0x0000000000001000 flags rw-
 DYNAMIC off    0x0000000000003e20 vaddr 0x0000000000404e20 paddr 0x0000000000404e20 align 2**3
         filesz 0x00000000000001d0 memsz 0x00000000000001d0 flags rw-
    NOTE off    0x00000000000002c4 vaddr 0x00000000004002c4 paddr 0x00000000004002c4 align 2**2
         filesz 0x0000000000000044 memsz 0x0000000000000044 flags r--
EH_FRAME off    0x00000000000034f8 vaddr 0x00000000004034f8 paddr 0x00000000004034f8 align 2**2
         filesz 0x000000000000013c memsz 0x000000000000013c flags r--
   STACK off    0x0000000000000000 vaddr 0x0000000000000000 paddr 0x0000000000000000 align 2**4
         filesz 0x0000000000000000 memsz 0x0000000000000000 flags rw-
   RELRO off    0x0000000000003e10 vaddr 0x0000000000404e10 paddr 0x0000000000404e10 align 2**0
         filesz 0x00000000000001f0 memsz 0x00000000000001f0 flags r--

动态节：
  NEEDED               libc.so.6
  INIT                 0x0000000000401000
  FINI                 0x0000000000402848
  INIT_ARRAY           0x0000000000404e10
  INIT_ARRAYSZ         0x0000000000000008
  FINI_ARRAY           0x0000000000404e18
  FINI_ARRAYSZ         0x0000000000000008
  GNU_HASH             0x0000000000400308
  STRTAB               0x0000000000400620
  SYMTAB               0x0000000000400338
  STRSZ                0x0000000000000155
  SYMENT               0x0000000000000018
  DEBUG                0x0000000000000000
  PLTGOT               0x0000000000405000
  PLTRELSZ             0x0000000000000258
  PLTREL               0x0000000000000007
  JMPREL               0x0000000000400890
  RELA                 0x0000000000400818
  RELASZ               0x0000000000000078
  RELAENT              0x0000000000000018
  VERNEED              0x00000000004007b8
  VERNEEDNUM           0x0000000000000001
  VERSYM               0x0000000000400776

版本引用：
  required from libc.so.6:
    0x0d696913 0x00 06 GLIBC_2.3
    0x0d696917 0x00 05 GLIBC_2.7
    0x06969194 0x00 04 GLIBC_2.14
    0x09691974 0x00 03 GLIBC_2.3.4
    0x09691a75 0x00 02 GLIBC_2.2.5

节：
Idx Name          Size      VMA               LMA               File off  Algn
  0 .interp       0000001c  00000000004002a8  00000000004002a8  000002a8  2**0
                  CONTENTS, ALLOC, LOAD, READONLY, DATA
  1 .note.gnu.build-id 00000024  00000000004002c4  00000000004002c4  000002c4  2**2
                  CONTENTS, ALLOC, LOAD, READONLY, DATA
  2 .note.ABI-tag 00000020  00000000004002e8  00000000004002e8  000002e8  2**2
                  CONTENTS, ALLOC, LOAD, READONLY, DATA
  3 .gnu.hash     00000030  0000000000400308  0000000000400308  00000308  2**3
                  CONTENTS, ALLOC, LOAD, READONLY, DATA
  4 .dynsym       000002e8  0000000000400338  0000000000400338  00000338  2**3
                  CONTENTS, ALLOC, LOAD, READONLY, DATA
  5 .dynstr       00000155  0000000000400620  0000000000400620  00000620  2**0
                  CONTENTS, ALLOC, LOAD, READONLY, DATA
  6 .gnu.version  0000003e  0000000000400776  0000000000400776  00000776  2**1
                  CONTENTS, ALLOC, LOAD, READONLY, DATA
  7 .gnu.version_r 00000060  00000000004007b8  00000000004007b8  000007b8  2**3
                  CONTENTS, ALLOC, LOAD, READONLY, DATA
  8 .rela.dyn     00000078  0000000000400818  0000000000400818  00000818  2**3
                  CONTENTS, ALLOC, LOAD, READONLY, DATA
  9 .rela.plt     00000258  0000000000400890  0000000000400890  00000890  2**3
                  CONTENTS, ALLOC, LOAD, READONLY, DATA
 10 .init         0000001b  0000000000401000  0000000000401000  00001000  2**2
                  CONTENTS, ALLOC, LOAD, READONLY, CODE
 11 .plt          000001a0  0000000000401020  0000000000401020  00001020  2**4
                  CONTENTS, ALLOC, LOAD, READONLY, CODE
 12 .text         00001685  00000000004011c0  00000000004011c0  000011c0  2**4
                  CONTENTS, ALLOC, LOAD, READONLY, CODE
 13 .fini         0000000d  0000000000402848  0000000000402848  00002848  2**2
                  CONTENTS, ALLOC, LOAD, READONLY, CODE
 14 .rodata       000004f7  0000000000403000  0000000000403000  00003000  2**5
                  CONTENTS, ALLOC, LOAD, READONLY, DATA
 15 .eh_frame_hdr 0000013c  00000000004034f8  00000000004034f8  000034f8  2**2
                  CONTENTS, ALLOC, LOAD, READONLY, DATA
 16 .eh_frame     00000550  0000000000403638  0000000000403638  00003638  2**3
                  CONTENTS, ALLOC, LOAD, READONLY, DATA
 17 .init_array   00000008  0000000000404e10  0000000000404e10  00003e10  2**3
                  CONTENTS, ALLOC, LOAD, DATA
 18 .fini_array   00000008  0000000000404e18  0000000000404e18  00003e18  2**3
                  CONTENTS, ALLOC, LOAD, DATA
 19 .dynamic      000001d0  0000000000404e20  0000000000404e20  00003e20  2**3
                  CONTENTS, ALLOC, LOAD, DATA
 20 .got          00000010  0000000000404ff0  0000000000404ff0  00003ff0  2**3
                  CONTENTS, ALLOC, LOAD, DATA
 21 .got.plt      000000e0  0000000000405000  0000000000405000  00004000  2**3
                  CONTENTS, ALLOC, LOAD, DATA
 22 .data         00000660  00000000004050e0  00000000004050e0  000040e0  2**5
                  CONTENTS, ALLOC, LOAD, DATA
 23 .bss          000006d0  0000000000405740  0000000000405740  00004740  2**5
                  ALLOC
 24 .comment      0000002c  0000000000000000  0000000000000000  00004740  2**0
                  CONTENTS, READONLY
 25 .debug_aranges 000000c0  0000000000000000  0000000000000000  0000476c  2**0
                  CONTENTS, READONLY, DEBUGGING
 26 .debug_info   0000459b  0000000000000000  0000000000000000  0000482c  2**0
                  CONTENTS, READONLY, DEBUGGING
 27 .debug_abbrev 00000c44  0000000000000000  0000000000000000  00008dc7  2**0
                  CONTENTS, READONLY, DEBUGGING
 28 .debug_line   0000177f  0000000000000000  0000000000000000  00009a0b  2**0
                  CONTENTS, READONLY, DEBUGGING
 29 .debug_str    00000b3d  0000000000000000  0000000000000000  0000b18a  2**0
                  CONTENTS, READONLY, DEBUGGING
 30 .debug_loc    00002c83  0000000000000000  0000000000000000  0000bcc7  2**0
                  CONTENTS, READONLY, DEBUGGING
SYMBOL TABLE:
00000000004002a8 l    d  .interp	0000000000000000              .interp
00000000004002c4 l    d  .note.gnu.build-id	0000000000000000              .note.gnu.build-id
00000000004002e8 l    d  .note.ABI-tag	0000000000000000              .note.ABI-tag
0000000000400308 l    d  .gnu.hash	0000000000000000              .gnu.hash
0000000000400338 l    d  .dynsym	0000000000000000              .dynsym
0000000000400620 l    d  .dynstr	0000000000000000              .dynstr
0000000000400776 l    d  .gnu.version	0000000000000000              .gnu.version
00000000004007b8 l    d  .gnu.version_r	0000000000000000              .gnu.version_r
0000000000400818 l    d  .rela.dyn	0000000000000000              .rela.dyn
0000000000400890 l    d  .rela.plt	0000000000000000              .rela.plt
0000000000401000 l    d  .init	0000000000000000              .init
0000000000401020 l    d  .plt	0000000000000000              .plt
00000000004011c0 l    d  .text	0000000000000000              .text
0000000000402848 l    d  .fini	0000000000000000              .fini
0000000000403000 l    d  .rodata	0000000000000000              .rodata
00000000004034f8 l    d  .eh_frame_hdr	0000000000000000              .eh_frame_hdr
0000000000403638 l    d  .eh_frame	0000000000000000              .eh_frame
0000000000404e10 l    d  .init_array	0000000000000000              .init_array
0000000000404e18 l    d  .fini_array	0000000000000000              .fini_array
0000000000404e20 l    d  .dynamic	0000000000000000              .dynamic
0000000000404ff0 l    d  .got	0000000000000000              .got
0000000000405000 l    d  .got.plt	0000000000000000              .got.plt
00000000004050e0 l    d  .data	0000000000000000              .data
0000000000405740 l    d  .bss	0000000000000000              .bss
0000000000000000 l    d  .comment	0000000000000000              .comment
0000000000000000 l    d  .debug_aranges	0000000000000000              .debug_aranges
0000000000000000 l    d  .debug_info	0000000000000000              .debug_info
0000000000000000 l    d  .debug_abbrev	0000000000000000              .debug_abbrev
0000000000000000 l    d  .debug_line	0000000000000000              .debug_line
0000000000000000 l    d  .debug_str	0000000000000000              .debug_str
0000000000000000 l    d  .debug_loc	0000000000000000              .debug_loc
0000000000000000 l    df *ABS*	0000000000000000              crtstuff.c
0000000000401200 l     F .text	0000000000000000              deregister_tm_clones
0000000000401230 l     F .text	0000000000000000              register_tm_clones
0000000000401270 l     F .text	0000000000000000              __do_global_dtors_aux
0000000000405768 l     O .bss	0000000000000001              completed.8055
0000000000404e18 l     O .fini_array	0000000000000000              __do_global_dtors_aux_fini_array_entry
00000000004012a0 l     F .text	0000000000000000              frame_dummy
0000000000404e10 l     O .init_array	0000000000000000              __frame_dummy_init_array_entry
0000000000000000 l    df *ABS*	0000000000000000              bomb.c
0000000000000000 l    df *ABS*	0000000000000000              phases.c
00000000004031e0 l     O .rodata	0000000000000040              array.3402
0000000000000000 l    df *ABS*	0000000000000000              support.c
0000000000401829 l     F .text	0000000000000056              sig_handler
0000000000000000 l    df *ABS*	0000000000000000              driverlib.c
0000000000401bb2 l     F .text	0000000000000012              rio_readinitb
0000000000401bf2 l     F .text	0000000000000007              __bswap_16
0000000000401bf9 l     F .text	000000000000005d              rio_writen
0000000000401c56 l     F .text	00000000000000fd              urlencode
0000000000401d53 l     F .text	000000000000008a              rio_read
0000000000401ddd l     F .text	0000000000000085              rio_readlineb
0000000000000000 l    df *ABS*	0000000000000000              crtstuff.c
0000000000403b84 l     O .eh_frame	0000000000000000              __FRAME_END__
0000000000000000 l    df *ABS*	0000000000000000              
0000000000404e18 l       .init_array	0000000000000000              __init_array_end
0000000000404e20 l     O .dynamic	0000000000000000              _DYNAMIC
0000000000404e10 l       .init_array	0000000000000000              __init_array_start
00000000004034f8 l       .eh_frame_hdr	0000000000000000              __GNU_EH_FRAME_HDR
0000000000405000 l     O .got.plt	0000000000000000              _GLOBAL_OFFSET_TABLE_
0000000000402840 g     F .text	0000000000000005              __libc_csu_fini
0000000000401966 g     F .text	000000000000004e              skip
0000000000000000       F *UND*	0000000000000000              getenv@@GLIBC_2.2.5
0000000000401b3d g     F .text	0000000000000075              phase_defused
0000000000405190 g     O .data	0000000000000018              n31
0000000000000000       F *UND*	0000000000000000              __errno_location@@GLIBC_2.2.5
0000000000405740 g     O .bss	0000000000000008              stdout@@GLIBC_2.2.5
00000000004050e0  w      .data	0000000000000000              data_start
0000000000405780 g     O .bss	0000000000000640              input_strings
0000000000000000       F *UND*	0000000000000000              strcpy@@GLIBC_2.2.5
0000000000405170 g     O .data	0000000000000018              n33
0000000000000000       F *UND*	0000000000000000              puts@@GLIBC_2.2.5
0000000000405750 g     O .bss	0000000000000008              stdin@@GLIBC_2.2.5
0000000000000000       F *UND*	0000000000000000              write@@GLIBC_2.2.5
0000000000405740 g       .data	0000000000000000              _edata
0000000000405230 g     O .data	0000000000000018              n44
0000000000405290 g     O .data	0000000000000018              n46
0000000000405250 g     O .data	0000000000000018              n42
00000000004052b0 g     O .data	0000000000000018              n48
0000000000402848 g     F .fini	0000000000000000              .hidden _fini
000000000040576c g     O .bss	0000000000000004              num_input_strings
000000000040164f g     F .text	0000000000000055              phase_5
000000000040192a g     F .text	0000000000000001              initialize_bomb_solve
000000000040192b g     F .text	000000000000003b              blank_line
0000000000401e62 g     F .text	00000000000006d6              submitr
0000000000401465 g     F .text	000000000000014e              phase_3
00000000004013f9 g     F .text	000000000000001b              phase_1
000000000040187f g     F .text	0000000000000025              invalid_phase
000000000040256d g     F .text	00000000000001dd              init_driver
0000000000000000       F *UND*	0000000000000000              alarm@@GLIBC_2.2.5
0000000000000000       F *UND*	0000000000000000              close@@GLIBC_2.2.5
00000000004052f0 g     O .data	0000000000000010              node3
0000000000000000       F *UND*	0000000000000000              read@@GLIBC_2.2.5
0000000000000000       F *UND*	0000000000000000              __libc_start_main@@GLIBC_2.2.5
0000000000000000       F *UND*	0000000000000000              fgets@@GLIBC_2.2.5
00000000004019b4 g     F .text	0000000000000022              explode_bomb
00000000004052d0 g     O .data	0000000000000010              node1
00000000004050e0 g       .data	0000000000000000              __data_start
0000000000000000       F *UND*	0000000000000000              signal@@GLIBC_2.2.5
0000000000000000       F *UND*	0000000000000000              gethostbyname@@GLIBC_2.2.5
0000000000405310 g     O .data	0000000000000010              node5
0000000000000000       F *UND*	0000000000000000              __memmove_chk@@GLIBC_2.3.4
0000000000000000  w      *UND*	0000000000000000              __gmon_start__
0000000000401799 g     F .text	000000000000003a              fun7
00000000004050e8 g     O .data	0000000000000000              .hidden __dso_handle
0000000000000000       F *UND*	0000000000000000              memcpy@@GLIBC_2.14
0000000000403000 g     O .rodata	0000000000000004              _IO_stdin_used
0000000000405130 g     O .data	0000000000000018              n22
0000000000405340 g     O .data	0000000000000400              host_table
00000000004015b3 g     F .text	000000000000004b              func4
00000000004050f0 g     O .data	0000000000000018              n1
00000000004018a4 g     F .text	0000000000000014              string_length
00000000004027d0 g     F .text	0000000000000065              __libc_csu_init
0000000000000000       F *UND*	0000000000000000              fflush@@GLIBC_2.2.5
0000000000000000       F *UND*	0000000000000000              __isoc99_sscanf@@GLIBC_2.7
00000000004051b0 g     O .data	0000000000000018              n34
0000000000405150 g     O .data	0000000000000018              n32
0000000000405e10 g       .bss	0000000000000000              _end
00000000004011f0 g     F .text	0000000000000005              .hidden _dl_relocate_static_pie
00000000004011c0 g     F .text	000000000000002f              _start
00000000004017d3 g     F .text	0000000000000056              secret_phase
0000000000405770 g     O .bss	0000000000000008              infile
0000000000401bc4 g     F .text	000000000000002e              sigalrm_handler
0000000000402538 g     F .text	0000000000000035              init_timeout
0000000000405740 g       .bss	0000000000000000              __bss_start
00000000004012a6 g     F .text	0000000000000153              main
0000000000000000       F *UND*	0000000000000000              __printf_chk@@GLIBC_2.3.4
0000000000405210 g     O .data	0000000000000018              n47
0000000000405270 g     O .data	0000000000000018              n43
00000000004051f0 g     O .data	0000000000000018              n41
0000000000401a12 g     F .text	000000000000012b              read_line
00000000004051d0 g     O .data	0000000000000018              n45
00000000004018b8 g     F .text	000000000000005d              strings_not_equal
00000000004015fe g     F .text	0000000000000051              phase_4
0000000000000000       F *UND*	0000000000000000              fopen@@GLIBC_2.2.5
00000000004016a4 g     F .text	00000000000000f5              phase_6
0000000000405dc0 g     O .bss	0000000000000050              scratch
000000000040274a g     F .text	000000000000007d              driver_post
0000000000401414 g     F .text	0000000000000051              phase_2
0000000000000000       F *UND*	0000000000000000              atoi@@GLIBC_2.2.5
0000000000000000       F *UND*	0000000000000000              exit@@GLIBC_2.2.5
0000000000405330 g     O .data	0000000000000004              bomb_id
0000000000000000       F *UND*	0000000000000000              connect@@GLIBC_2.2.5
0000000000405740 g     O .data	0000000000000000              .hidden __TMC_END__
0000000000000000       F *UND*	0000000000000000              __fprintf_chk@@GLIBC_2.3.4
00000000004052e0 g     O .data	0000000000000010              node2
0000000000405300 g     O .data	0000000000000010              node4
0000000000000000       F *UND*	0000000000000000              sleep@@GLIBC_2.2.5
0000000000405320 g     O .data	0000000000000010              node6
0000000000401000 g     F .init	0000000000000000              .hidden _init
00000000004019d6 g     F .text	000000000000003c              read_six_numbers
0000000000405110 g     O .data	0000000000000018              n21
0000000000401915 g     F .text	0000000000000015              initialize_bomb
0000000000000000       F *UND*	0000000000000000              __ctype_b_loc@@GLIBC_2.3
0000000000405760 g     O .bss	0000000000000008              stderr@@GLIBC_2.2.5
0000000000000000       F *UND*	0000000000000000              __sprintf_chk@@GLIBC_2.3.4
0000000000000000       F *UND*	0000000000000000              socket@@GLIBC_2.2.5



Disassembly of section .init:

0000000000401000 <_init>:
  401000:	f3 0f 1e fa          	endbr64 
  401004:	48 83 ec 08          	sub    $0x8,%rsp
  401008:	48 8b 05 e9 3f 00 00 	mov    0x3fe9(%rip),%rax        # 404ff8 <__gmon_start__>
  40100f:	48 85 c0             	test   %rax,%rax
  401012:	74 02                	je     401016 <_init+0x16>
  401014:	ff d0                	callq  *%rax
  401016:	48 83 c4 08          	add    $0x8,%rsp
  40101a:	c3                   	retq   

Disassembly of section .plt:

0000000000401020 <.plt>:
  401020:	ff 35 e2 3f 00 00    	pushq  0x3fe2(%rip)        # 405008 <_GLOBAL_OFFSET_TABLE_+0x8>
  401026:	ff 25 e4 3f 00 00    	jmpq   *0x3fe4(%rip)        # 405010 <_GLOBAL_OFFSET_TABLE_+0x10>
  40102c:	0f 1f 40 00          	nopl   0x0(%rax)

0000000000401030 <getenv@plt>:
  401030:	ff 25 e2 3f 00 00    	jmpq   *0x3fe2(%rip)        # 405018 <getenv@GLIBC_2.2.5>
  401036:	68 00 00 00 00       	pushq  $0x0
  40103b:	e9 e0 ff ff ff       	jmpq   401020 <.plt>

0000000000401040 <__errno_location@plt>:
  401040:	ff 25 da 3f 00 00    	jmpq   *0x3fda(%rip)        # 405020 <__errno_location@GLIBC_2.2.5>
  401046:	68 01 00 00 00       	pushq  $0x1
  40104b:	e9 d0 ff ff ff       	jmpq   401020 <.plt>

0000000000401050 <strcpy@plt>:
  401050:	ff 25 d2 3f 00 00    	jmpq   *0x3fd2(%rip)        # 405028 <strcpy@GLIBC_2.2.5>
  401056:	68 02 00 00 00       	pushq  $0x2
  40105b:	e9 c0 ff ff ff       	jmpq   401020 <.plt>

0000000000401060 <puts@plt>:
  401060:	ff 25 ca 3f 00 00    	jmpq   *0x3fca(%rip)        # 405030 <puts@GLIBC_2.2.5>
  401066:	68 03 00 00 00       	pushq  $0x3
  40106b:	e9 b0 ff ff ff       	jmpq   401020 <.plt>

0000000000401070 <write@plt>:
  401070:	ff 25 c2 3f 00 00    	jmpq   *0x3fc2(%rip)        # 405038 <write@GLIBC_2.2.5>
  401076:	68 04 00 00 00       	pushq  $0x4
  40107b:	e9 a0 ff ff ff       	jmpq   401020 <.plt>

0000000000401080 <alarm@plt>:
  401080:	ff 25 ba 3f 00 00    	jmpq   *0x3fba(%rip)        # 405040 <alarm@GLIBC_2.2.5>
  401086:	68 05 00 00 00       	pushq  $0x5
  40108b:	e9 90 ff ff ff       	jmpq   401020 <.plt>

0000000000401090 <close@plt>:
  401090:	ff 25 b2 3f 00 00    	jmpq   *0x3fb2(%rip)        # 405048 <close@GLIBC_2.2.5>
  401096:	68 06 00 00 00       	pushq  $0x6
  40109b:	e9 80 ff ff ff       	jmpq   401020 <.plt>

00000000004010a0 <read@plt>:
  4010a0:	ff 25 aa 3f 00 00    	jmpq   *0x3faa(%rip)        # 405050 <read@GLIBC_2.2.5>
  4010a6:	68 07 00 00 00       	pushq  $0x7
  4010ab:	e9 70 ff ff ff       	jmpq   401020 <.plt>

00000000004010b0 <fgets@plt>:
  4010b0:	ff 25 a2 3f 00 00    	jmpq   *0x3fa2(%rip)        # 405058 <fgets@GLIBC_2.2.5>
  4010b6:	68 08 00 00 00       	pushq  $0x8
  4010bb:	e9 60 ff ff ff       	jmpq   401020 <.plt>

00000000004010c0 <signal@plt>:
  4010c0:	ff 25 9a 3f 00 00    	jmpq   *0x3f9a(%rip)        # 405060 <signal@GLIBC_2.2.5>
  4010c6:	68 09 00 00 00       	pushq  $0x9
  4010cb:	e9 50 ff ff ff       	jmpq   401020 <.plt>

00000000004010d0 <gethostbyname@plt>:
  4010d0:	ff 25 92 3f 00 00    	jmpq   *0x3f92(%rip)        # 405068 <gethostbyname@GLIBC_2.2.5>
  4010d6:	68 0a 00 00 00       	pushq  $0xa
  4010db:	e9 40 ff ff ff       	jmpq   401020 <.plt>

00000000004010e0 <__memmove_chk@plt>:
  4010e0:	ff 25 8a 3f 00 00    	jmpq   *0x3f8a(%rip)        # 405070 <__memmove_chk@GLIBC_2.3.4>
  4010e6:	68 0b 00 00 00       	pushq  $0xb
  4010eb:	e9 30 ff ff ff       	jmpq   401020 <.plt>

00000000004010f0 <memcpy@plt>:
  4010f0:	ff 25 82 3f 00 00    	jmpq   *0x3f82(%rip)        # 405078 <memcpy@GLIBC_2.14>
  4010f6:	68 0c 00 00 00       	pushq  $0xc
  4010fb:	e9 20 ff ff ff       	jmpq   401020 <.plt>

0000000000401100 <fflush@plt>:
  401100:	ff 25 7a 3f 00 00    	jmpq   *0x3f7a(%rip)        # 405080 <fflush@GLIBC_2.2.5>
  401106:	68 0d 00 00 00       	pushq  $0xd
  40110b:	e9 10 ff ff ff       	jmpq   401020 <.plt>

0000000000401110 <__isoc99_sscanf@plt>:
  401110:	ff 25 72 3f 00 00    	jmpq   *0x3f72(%rip)        # 405088 <__isoc99_sscanf@GLIBC_2.7>
  401116:	68 0e 00 00 00       	pushq  $0xe
  40111b:	e9 00 ff ff ff       	jmpq   401020 <.plt>

0000000000401120 <__printf_chk@plt>:
  401120:	ff 25 6a 3f 00 00    	jmpq   *0x3f6a(%rip)        # 405090 <__printf_chk@GLIBC_2.3.4>
  401126:	68 0f 00 00 00       	pushq  $0xf
  40112b:	e9 f0 fe ff ff       	jmpq   401020 <.plt>

0000000000401130 <fopen@plt>:
  401130:	ff 25 62 3f 00 00    	jmpq   *0x3f62(%rip)        # 405098 <fopen@GLIBC_2.2.5>
  401136:	68 10 00 00 00       	pushq  $0x10
  40113b:	e9 e0 fe ff ff       	jmpq   401020 <.plt>

0000000000401140 <atoi@plt>:
  401140:	ff 25 5a 3f 00 00    	jmpq   *0x3f5a(%rip)        # 4050a0 <atoi@GLIBC_2.2.5>
  401146:	68 11 00 00 00       	pushq  $0x11
  40114b:	e9 d0 fe ff ff       	jmpq   401020 <.plt>

0000000000401150 <exit@plt>:
  401150:	ff 25 52 3f 00 00    	jmpq   *0x3f52(%rip)        # 4050a8 <exit@GLIBC_2.2.5>
  401156:	68 12 00 00 00       	pushq  $0x12
  40115b:	e9 c0 fe ff ff       	jmpq   401020 <.plt>

0000000000401160 <connect@plt>:
  401160:	ff 25 4a 3f 00 00    	jmpq   *0x3f4a(%rip)        # 4050b0 <connect@GLIBC_2.2.5>
  401166:	68 13 00 00 00       	pushq  $0x13
  40116b:	e9 b0 fe ff ff       	jmpq   401020 <.plt>

0000000000401170 <__fprintf_chk@plt>:
  401170:	ff 25 42 3f 00 00    	jmpq   *0x3f42(%rip)        # 4050b8 <__fprintf_chk@GLIBC_2.3.4>
  401176:	68 14 00 00 00       	pushq  $0x14
  40117b:	e9 a0 fe ff ff       	jmpq   401020 <.plt>

0000000000401180 <sleep@plt>:
  401180:	ff 25 3a 3f 00 00    	jmpq   *0x3f3a(%rip)        # 4050c0 <sleep@GLIBC_2.2.5>
  401186:	68 15 00 00 00       	pushq  $0x15
  40118b:	e9 90 fe ff ff       	jmpq   401020 <.plt>

0000000000401190 <__ctype_b_loc@plt>:
  401190:	ff 25 32 3f 00 00    	jmpq   *0x3f32(%rip)        # 4050c8 <__ctype_b_loc@GLIBC_2.3>
  401196:	68 16 00 00 00       	pushq  $0x16
  40119b:	e9 80 fe ff ff       	jmpq   401020 <.plt>

00000000004011a0 <__sprintf_chk@plt>:
  4011a0:	ff 25 2a 3f 00 00    	jmpq   *0x3f2a(%rip)        # 4050d0 <__sprintf_chk@GLIBC_2.3.4>
  4011a6:	68 17 00 00 00       	pushq  $0x17
  4011ab:	e9 70 fe ff ff       	jmpq   401020 <.plt>

00000000004011b0 <socket@plt>:
  4011b0:	ff 25 22 3f 00 00    	jmpq   *0x3f22(%rip)        # 4050d8 <socket@GLIBC_2.2.5>
  4011b6:	68 18 00 00 00       	pushq  $0x18
  4011bb:	e9 60 fe ff ff       	jmpq   401020 <.plt>

Disassembly of section .text:

00000000004011c0 <_start>:
  4011c0:	f3 0f 1e fa          	endbr64 
  4011c4:	31 ed                	xor    %ebp,%ebp
  4011c6:	49 89 d1             	mov    %rdx,%r9
  4011c9:	5e                   	pop    %rsi
  4011ca:	48 89 e2             	mov    %rsp,%rdx
  4011cd:	48 83 e4 f0          	and    $0xfffffffffffffff0,%rsp
  4011d1:	50                   	push   %rax
  4011d2:	54                   	push   %rsp
  4011d3:	49 c7 c0 40 28 40 00 	mov    $0x402840,%r8
  4011da:	48 c7 c1 d0 27 40 00 	mov    $0x4027d0,%rcx
  4011e1:	48 c7 c7 a6 12 40 00 	mov    $0x4012a6,%rdi
  4011e8:	ff 15 02 3e 00 00    	callq  *0x3e02(%rip)        # 404ff0 <__libc_start_main@GLIBC_2.2.5>
  4011ee:	f4                   	hlt    
  4011ef:	90                   	nop

00000000004011f0 <_dl_relocate_static_pie>:
  4011f0:	f3 0f 1e fa          	endbr64 
  4011f4:	c3                   	retq   
  4011f5:	66 2e 0f 1f 84 00 00 	nopw   %cs:0x0(%rax,%rax,1)
  4011fc:	00 00 00 
  4011ff:	90                   	nop

0000000000401200 <deregister_tm_clones>:
  401200:	b8 40 57 40 00       	mov    $0x405740,%eax
  401205:	48 3d 40 57 40 00    	cmp    $0x405740,%rax
  40120b:	74 13                	je     401220 <deregister_tm_clones+0x20>
  40120d:	b8 00 00 00 00       	mov    $0x0,%eax
  401212:	48 85 c0             	test   %rax,%rax
  401215:	74 09                	je     401220 <deregister_tm_clones+0x20>
  401217:	bf 40 57 40 00       	mov    $0x405740,%edi
  40121c:	ff e0                	jmpq   *%rax
  40121e:	66 90                	xchg   %ax,%ax
  401220:	c3                   	retq   
  401221:	66 66 2e 0f 1f 84 00 	data16 nopw %cs:0x0(%rax,%rax,1)
  401228:	00 00 00 00 
  40122c:	0f 1f 40 00          	nopl   0x0(%rax)

0000000000401230 <register_tm_clones>:
  401230:	be 40 57 40 00       	mov    $0x405740,%esi
  401235:	48 81 ee 40 57 40 00 	sub    $0x405740,%rsi
  40123c:	48 89 f0             	mov    %rsi,%rax
  40123f:	48 c1 ee 3f          	shr    $0x3f,%rsi
  401243:	48 c1 f8 03          	sar    $0x3,%rax
  401247:	48 01 c6             	add    %rax,%rsi
  40124a:	48 d1 fe             	sar    %rsi
  40124d:	74 11                	je     401260 <register_tm_clones+0x30>
  40124f:	b8 00 00 00 00       	mov    $0x0,%eax
  401254:	48 85 c0             	test   %rax,%rax
  401257:	74 07                	je     401260 <register_tm_clones+0x30>
  401259:	bf 40 57 40 00       	mov    $0x405740,%edi
  40125e:	ff e0                	jmpq   *%rax
  401260:	c3                   	retq   
  401261:	66 66 2e 0f 1f 84 00 	data16 nopw %cs:0x0(%rax,%rax,1)
  401268:	00 00 00 00 
  40126c:	0f 1f 40 00          	nopl   0x0(%rax)

0000000000401270 <__do_global_dtors_aux>:
  401270:	f3 0f 1e fa          	endbr64 
  401274:	80 3d ed 44 00 00 00 	cmpb   $0x0,0x44ed(%rip)        # 405768 <completed.8055>
  40127b:	75 13                	jne    401290 <__do_global_dtors_aux+0x20>
  40127d:	55                   	push   %rbp
  40127e:	48 89 e5             	mov    %rsp,%rbp
  401281:	e8 7a ff ff ff       	callq  401200 <deregister_tm_clones>
  401286:	c6 05 db 44 00 00 01 	movb   $0x1,0x44db(%rip)        # 405768 <completed.8055>
  40128d:	5d                   	pop    %rbp
  40128e:	c3                   	retq   
  40128f:	90                   	nop
  401290:	c3                   	retq   
  401291:	66 66 2e 0f 1f 84 00 	data16 nopw %cs:0x0(%rax,%rax,1)
  401298:	00 00 00 00 
  40129c:	0f 1f 40 00          	nopl   0x0(%rax)

00000000004012a0 <frame_dummy>:
  4012a0:	f3 0f 1e fa          	endbr64 
  4012a4:	eb 8a                	jmp    401230 <register_tm_clones>

00000000004012a6 <main>:
  4012a6:	55                   	push   %rbp
  4012a7:	48 89 e5             	mov    %rsp,%rbp
  4012aa:	53                   	push   %rbx
  4012ab:	48 83 ec 08          	sub    $0x8,%rsp
  4012af:	83 ff 01             	cmp    $0x1,%edi
  4012b2:	0f 84 ed 00 00 00    	je     4013a5 <main+0xff>
  4012b8:	48 89 f3             	mov    %rsi,%rbx
  4012bb:	83 ff 02             	cmp    $0x2,%edi
  4012be:	0f 85 14 01 00 00    	jne    4013d8 <main+0x132>
  4012c4:	48 8b 7e 08          	mov    0x8(%rsi),%rdi
  4012c8:	be 04 30 40 00       	mov    $0x403004,%esi
  4012cd:	e8 5e fe ff ff       	callq  401130 <fopen@plt>
  4012d2:	48 89 05 97 44 00 00 	mov    %rax,0x4497(%rip)        # 405770 <infile>
  4012d9:	48 85 c0             	test   %rax,%rax
  4012dc:	0f 84 d6 00 00 00    	je     4013b8 <main+0x112>
  4012e2:	e8 2e 06 00 00       	callq  401915 <initialize_bomb>
  4012e7:	bf 88 30 40 00       	mov    $0x403088,%edi
  4012ec:	e8 6f fd ff ff       	callq  401060 <puts@plt>
  4012f1:	bf c8 30 40 00       	mov    $0x4030c8,%edi
  4012f6:	e8 65 fd ff ff       	callq  401060 <puts@plt>
  4012fb:	e8 12 07 00 00       	callq  401a12 <read_line>
  401300:	48 89 c7             	mov    %rax,%rdi
  401303:	e8 f1 00 00 00       	callq  4013f9 <phase_1>
  401308:	e8 30 08 00 00       	callq  401b3d <phase_defused>
  40130d:	bf f8 30 40 00       	mov    $0x4030f8,%edi
  401312:	e8 49 fd ff ff       	callq  401060 <puts@plt>
  401317:	e8 f6 06 00 00       	callq  401a12 <read_line>
  40131c:	48 89 c7             	mov    %rax,%rdi
  40131f:	e8 f0 00 00 00       	callq  401414 <phase_2>
  401324:	e8 14 08 00 00       	callq  401b3d <phase_defused>
  401329:	bf 3d 30 40 00       	mov    $0x40303d,%edi
  40132e:	e8 2d fd ff ff       	callq  401060 <puts@plt>
  401333:	e8 da 06 00 00       	callq  401a12 <read_line>
  401338:	48 89 c7             	mov    %rax,%rdi
  40133b:	e8 25 01 00 00       	callq  401465 <phase_3>
  401340:	e8 f8 07 00 00       	callq  401b3d <phase_defused>
  401345:	bf 5b 30 40 00       	mov    $0x40305b,%edi
  40134a:	e8 11 fd ff ff       	callq  401060 <puts@plt>
  40134f:	e8 be 06 00 00       	callq  401a12 <read_line>
  401354:	48 89 c7             	mov    %rax,%rdi
  401357:	e8 a2 02 00 00       	callq  4015fe <phase_4>
  40135c:	e8 dc 07 00 00       	callq  401b3d <phase_defused>
  401361:	bf 28 31 40 00       	mov    $0x403128,%edi
  401366:	e8 f5 fc ff ff       	callq  401060 <puts@plt>
  40136b:	e8 a2 06 00 00       	callq  401a12 <read_line>
  401370:	48 89 c7             	mov    %rax,%rdi
  401373:	e8 d7 02 00 00       	callq  40164f <phase_5>
  401378:	e8 c0 07 00 00       	callq  401b3d <phase_defused>
  40137d:	bf 6a 30 40 00       	mov    $0x40306a,%edi
  401382:	e8 d9 fc ff ff       	callq  401060 <puts@plt>
  401387:	e8 86 06 00 00       	callq  401a12 <read_line>
  40138c:	48 89 c7             	mov    %rax,%rdi
  40138f:	e8 10 03 00 00       	callq  4016a4 <phase_6>
  401394:	e8 a4 07 00 00       	callq  401b3d <phase_defused>
  401399:	b8 00 00 00 00       	mov    $0x0,%eax
  40139e:	48 83 c4 08          	add    $0x8,%rsp
  4013a2:	5b                   	pop    %rbx
  4013a3:	5d                   	pop    %rbp
  4013a4:	c3                   	retq   
  4013a5:	48 8b 05 a4 43 00 00 	mov    0x43a4(%rip),%rax        # 405750 <stdin@@GLIBC_2.2.5>
  4013ac:	48 89 05 bd 43 00 00 	mov    %rax,0x43bd(%rip)        # 405770 <infile>
  4013b3:	e9 2a ff ff ff       	jmpq   4012e2 <main+0x3c>
  4013b8:	48 8b 4b 08          	mov    0x8(%rbx),%rcx
  4013bc:	48 8b 13             	mov    (%rbx),%rdx
  4013bf:	be 06 30 40 00       	mov    $0x403006,%esi
  4013c4:	bf 01 00 00 00       	mov    $0x1,%edi
  4013c9:	e8 52 fd ff ff       	callq  401120 <__printf_chk@plt>
  4013ce:	bf 08 00 00 00       	mov    $0x8,%edi
  4013d3:	e8 78 fd ff ff       	callq  401150 <exit@plt>
  4013d8:	48 8b 16             	mov    (%rsi),%rdx
  4013db:	be 23 30 40 00       	mov    $0x403023,%esi
  4013e0:	bf 01 00 00 00       	mov    $0x1,%edi
  4013e5:	b8 00 00 00 00       	mov    $0x0,%eax
  4013ea:	e8 31 fd ff ff       	callq  401120 <__printf_chk@plt>
  4013ef:	bf 08 00 00 00       	mov    $0x8,%edi
  4013f4:	e8 57 fd ff ff       	callq  401150 <exit@plt>

00000000004013f9 <phase_1>:
  4013f9:	55                   	push   %rbp
  4013fa:	48 89 e5             	mov    %rsp,%rbp
  4013fd:	be 50 31 40 00       	mov    $0x403150,%esi
  401402:	e8 b1 04 00 00       	callq  4018b8 <strings_not_equal>
  401407:	85 c0                	test   %eax,%eax
  401409:	75 02                	jne    40140d <phase_1+0x14>
  40140b:	5d                   	pop    %rbp
  40140c:	c3                   	retq   
  40140d:	e8 a2 05 00 00       	callq  4019b4 <explode_bomb>
  401412:	eb f7                	jmp    40140b <phase_1+0x12>

0000000000401414 <phase_2>:
  401414:	55                   	push   %rbp
  401415:	48 89 e5             	mov    %rsp,%rbp
  401418:	53                   	push   %rbx
  401419:	48 83 ec 28          	sub    $0x28,%rsp
  40141d:	48 8d 75 d0          	lea    -0x30(%rbp),%rsi
  401421:	e8 b0 05 00 00       	callq  4019d6 <read_six_numbers>
  401426:	83 7d d0 00          	cmpl   $0x0,-0x30(%rbp)
  40142a:	78 07                	js     401433 <phase_2+0x1f>
  40142c:	bb 01 00 00 00       	mov    $0x1,%ebx
  401431:	eb 0f                	jmp    401442 <phase_2+0x2e>
  401433:	e8 7c 05 00 00       	callq  4019b4 <explode_bomb>
  401438:	eb f2                	jmp    40142c <phase_2+0x18>
  40143a:	e8 75 05 00 00       	callq  4019b4 <explode_bomb>
  40143f:	83 c3 01             	add    $0x1,%ebx
  401442:	83 fb 05             	cmp    $0x5,%ebx //%ebx:count
  401445:	7f 17                	jg     40145e <phase_2+0x4a> //count>5就結束循環
  401447:	48 63 c3             	movslq %ebx,%rax //%rax=%rbx
  40144a:	8d 53 ff             	lea    -0x1(%rbx),%edx //%rdx=%rbx-1
  40144d:	48 63 d2             	movslq %edx,%rdx 
  401450:	89 d9                	mov    %ebx,%ecx //%rcx=%rbx
  401452:	03 4c 95 d0          	add    -0x30(%rbp,%rdx,4),%ecx //%rcx+=num[rdx]
  401456:	39 4c 85 d0          	cmp    %ecx,-0x30(%rbp,%rax,4) //%rcx==num[rax]
  40145a:	74 e3                	je     40143f <phase_2+0x2b>
  40145c:	eb dc                	jmp    40143a <phase_2+0x26>
  40145e:	48 83 c4 28          	add    $0x28,%rsp
  401462:	5b                   	pop    %rbx
  401463:	5d                   	pop    %rbp
  401464:	c3                   	retq   

0000000000401465 <phase_3>:
  401465:	55                   	push   %rbp
  401466:	48 89 e5             	mov    %rsp,%rbp
  401469:	48 83 ec 10          	sub    $0x10,%rsp
  40146d:	4c 8d 45 f8          	lea    -0x8(%rbp),%r8
  401471:	48 8d 4d f7          	lea    -0x9(%rbp),%rcx
  401475:	48 8d 55 fc          	lea    -0x4(%rbp),%rdx
  401479:	be 96 31 40 00       	mov    $0x403196,%esi
  40147e:	b8 00 00 00 00       	mov    $0x0,%eax
  401483:	e8 88 fc ff ff       	callq  401110 <__isoc99_sscanf@plt> %d %c %d
  401488:	83 f8 02             	cmp    $0x2,%eax //此时%eax有关表示读到了几个数
  40148b:	7e 15                	jle    4014a2 <phase_3+0x3d>
  40148d:	8b 45 fc             	mov    -0x4(%rbp),%eax
  401490:	83 f8 07             	cmp    $0x7,%eax
  401493:	0f 87 02 01 00 00    	ja     40159b <phase_3+0x136>//bomb
  401499:	89 c0                	mov    %eax,%eax
  40149b:	ff 24 c5 a0 31 40 00 	jmpq   *0x4031a0(,%rax,8)//Mem(0x4031a0+8*%rax）=40157f,jump到0x40157f
  4014a2:	e8 0d 05 00 00       	callq  4019b4 <explode_bomb>
  4014a7:	eb e4                	jmp    40148d <phase_3+0x28>
  4014a9:	81 7d f8 7b 03 00 00 	cmpl   $0x37b,-0x8(%rbp)
  4014b0:	75 0a                	jne    4014bc <phase_3+0x57>
  4014b2:	b8 6a 00 00 00       	mov    $0x6a,%eax
  4014b7:	e9 e9 00 00 00       	jmpq   4015a5 <phase_3+0x140>
  4014bc:	e8 f3 04 00 00       	callq  4019b4 <explode_bomb>
  4014c1:	b8 6a 00 00 00       	mov    $0x6a,%eax
  4014c6:	e9 da 00 00 00       	jmpq   4015a5 <phase_3+0x140>
  4014cb:	81 7d f8 97 00 00 00 	cmpl   $0x97,-0x8(%rbp)
  4014d2:	75 0a                	jne    4014de <phase_3+0x79>
  4014d4:	b8 73 00 00 00       	mov    $0x73,%eax
  4014d9:	e9 c7 00 00 00       	jmpq   4015a5 <phase_3+0x140>
  4014de:	e8 d1 04 00 00       	callq  4019b4 <explode_bomb>
  4014e3:	b8 73 00 00 00       	mov    $0x73,%eax
  4014e8:	e9 b8 00 00 00       	jmpq   4015a5 <phase_3+0x140>
  4014ed:	81 7d f8 3a 03 00 00 	cmpl   $0x33a,-0x8(%rbp)
  4014f4:	75 0a                	jne    401500 <phase_3+0x9b>
  4014f6:	b8 73 00 00 00       	mov    $0x73,%eax
  4014fb:	e9 a5 00 00 00       	jmpq   4015a5 <phase_3+0x140>
  401500:	e8 af 04 00 00       	callq  4019b4 <explode_bomb>
  401505:	b8 73 00 00 00       	mov    $0x73,%eax
  40150a:	e9 96 00 00 00       	jmpq   4015a5 <phase_3+0x140>
  40150f:	83 7d f8 66          	cmpl   $0x66,-0x8(%rbp)
  401513:	75 0a                	jne    40151f <phase_3+0xba>
  401515:	b8 69 00 00 00       	mov    $0x69,%eax
  40151a:	e9 86 00 00 00       	jmpq   4015a5 <phase_3+0x140>
  40151f:	e8 90 04 00 00       	callq  4019b4 <explode_bomb>
  401524:	b8 69 00 00 00       	mov    $0x69,%eax
  401529:	eb 7a                	jmp    4015a5 <phase_3+0x140>
  40152b:	81 7d f8 3e 01 00 00 	cmpl   $0x13e,-0x8(%rbp)
  401532:	75 07                	jne    40153b <phase_3+0xd6>
  401534:	b8 66 00 00 00       	mov    $0x66,%eax
  401539:	eb 6a                	jmp    4015a5 <phase_3+0x140>
  40153b:	e8 74 04 00 00       	callq  4019b4 <explode_bomb>
  401540:	b8 66 00 00 00       	mov    $0x66,%eax
  401545:	eb 5e                	jmp    4015a5 <phase_3+0x140>
  401547:	81 7d f8 41 01 00 00 	cmpl   $0x141,-0x8(%rbp)
  40154e:	75 07                	jne    401557 <phase_3+0xf2>
  401550:	b8 68 00 00 00       	mov    $0x68,%eax
  401555:	eb 4e                	jmp    4015a5 <phase_3+0x140>
  401557:	e8 58 04 00 00       	callq  4019b4 <explode_bomb>
  40155c:	b8 68 00 00 00       	mov    $0x68,%eax
  401561:	eb 42                	jmp    4015a5 <phase_3+0x140>
  401563:	81 7d f8 2e 01 00 00 	cmpl   $0x12e,-0x8(%rbp)
  40156a:	75 07                	jne    401573 <phase_3+0x10e>
  40156c:	b8 74 00 00 00       	mov    $0x74,%eax
  401571:	eb 32                	jmp    4015a5 <phase_3+0x140>
  401573:	e8 3c 04 00 00       	callq  4019b4 <explode_bomb>
  401578:	b8 74 00 00 00       	mov    $0x74,%eax
  40157d:	eb 26                	jmp    4015a5 <phase_3+0x140>
  40157f:	81 7d f8 38 02 00 00 	cmpl   $0x238,-0x8(%rbp)
  401586:	75 07                	jne    40158f <phase_3+0x12a>
  401588:	b8 71 00 00 00       	mov    $0x71,%eax
  40158d:	eb 16                	jmp    4015a5 <phase_3+0x140>
  40158f:	e8 20 04 00 00       	callq  4019b4 <explode_bomb>
  401594:	b8 71 00 00 00       	mov    $0x71,%eax
  401599:	eb 0a                	jmp    4015a5 <phase_3+0x140>
  40159b:	e8 14 04 00 00       	callq  4019b4 <explode_bomb>
  4015a0:	b8 73 00 00 00       	mov    $0x73,%eax
  4015a5:	38 45 f7             	cmp    %al,-0x9(%rbp)
  4015a8:	75 02                	jne    4015ac <phase_3+0x147>
  4015aa:	c9                   	leaveq 
  4015ab:	c3                   	retq   
  4015ac:	e8 03 04 00 00       	callq  4019b4 <explode_bomb>
  4015b1:	eb f7                	jmp    4015aa <phase_3+0x145>

00000000004015b3 <func4>:
  4015b3:	85 ff                	test   %edi,%edi
  4015b5:	7e 3d                	jle    4015f4 <func4+0x41>
  4015b7:	55                   	push   %rbp
  4015b8:	48 89 e5             	mov    %rsp,%rbp
  4015bb:	41 55                	push   %r13
  4015bd:	41 54                	push   %r12
  4015bf:	53                   	push   %rbx
  4015c0:	48 83 ec 08          	sub    $0x8,%rsp
  4015c4:	41 89 fc             	mov    %edi,%r12d
  4015c7:	89 f3                	mov    %esi,%ebx
  4015c9:	83 ff 01             	cmp    $0x1,%edi
  4015cc:	74 2c                	je     4015fa <func4+0x47>
  4015ce:	8d 7f ff             	lea    -0x1(%rdi),%edi
  4015d1:	e8 dd ff ff ff       	callq  4015b3 <func4>
  4015d6:	44 8d 2c 18          	lea    (%rax,%rbx,1),%r13d
  4015da:	41 8d 7c 24 fe       	lea    -0x2(%r12),%edi
  4015df:	89 de                	mov    %ebx,%esi
  4015e1:	e8 cd ff ff ff       	callq  4015b3 <func4>
  4015e6:	44 01 e8             	add    %r13d,%eax
  4015e9:	48 83 c4 08          	add    $0x8,%rsp
  4015ed:	5b                   	pop    %rbx
  4015ee:	41 5c                	pop    %r12
  4015f0:	41 5d                	pop    %r13
  4015f2:	5d                   	pop    %rbp
  4015f3:	c3                   	retq   
  4015f4:	b8 00 00 00 00       	mov    $0x0,%eax
  4015f9:	c3                   	retq   
  4015fa:	89 f0                	mov    %esi,%eax
  4015fc:	eb eb                	jmp    4015e9 <func4+0x36>

00000000004015fe <phase_4>:
  4015fe:	55                   	push   %rbp
  4015ff:	48 89 e5             	mov    %rsp,%rbp
  401602:	48 83 ec 10          	sub    $0x10,%rsp
  401606:	48 8d 4d fc          	lea    -0x4(%rbp),%rcx
  40160a:	48 8d 55 f8          	lea    -0x8(%rbp),%rdx
  40160e:	be 2f 33 40 00       	mov    $0x40332f,%esi
  401613:	b8 00 00 00 00       	mov    $0x0,%eax
  401618:	e8 f3 fa ff ff       	callq  401110 <__isoc99_sscanf@plt>
  40161d:	83 f8 02             	cmp    $0x2,%eax
  401620:	75 0d                	jne    40162f <phase_4+0x31>
  401622:	8b 45 fc             	mov    -0x4(%rbp),%eax
  401625:	83 f8 01             	cmp    $0x1,%eax
  401628:	7e 05                	jle    40162f <phase_4+0x31>
  40162a:	83 f8 04             	cmp    $0x4,%eax
  40162d:	7e 05                	jle    401634 <phase_4+0x36>
  40162f:	e8 80 03 00 00       	callq  4019b4 <explode_bomb>
  401634:	8b 75 fc             	mov    -0x4(%rbp),%esi
  401637:	bf 08 00 00 00       	mov    $0x8,%edi
  40163c:	e8 72 ff ff ff       	callq  4015b3 <func4>
  401641:	39 45 f8             	cmp    %eax,-0x8(%rbp)
  401644:	75 02                	jne    401648 <phase_4+0x4a>
  401646:	c9                   	leaveq 
  401647:	c3                   	retq   
  401648:	e8 67 03 00 00       	callq  4019b4 <explode_bomb>
  40164d:	eb f7                	jmp    401646 <phase_4+0x48>

000000000040164f <phase_5>:
  40164f:	55                   	push   %rbp
  401650:	48 89 e5             	mov    %rsp,%rbp
  401653:	53                   	push   %rbx
  401654:	48 83 ec 08          	sub    $0x8,%rsp
  401658:	48 89 fb             	mov    %rdi,%rbx
  40165b:	e8 44 02 00 00       	callq  4018a4 <string_length>
  401660:	83 f8 06             	cmp    $0x6,%eax
  401663:	75 25                	jne    40168a <phase_5+0x3b>
  401665:	b9 00 00 00 00       	mov    $0x0,%ecx
  40166a:	b8 00 00 00 00       	mov    $0x0,%eax
  40166f:	83 f8 05             	cmp    $0x5,%eax
  401672:	7f 1d                	jg     401691 <phase_5+0x42>
  401674:	48 63 d0             	movslq %eax,%rdx
  401677:	0f b6 14 13          	movzbl (%rbx,%rdx,1),%edx
  40167b:	83 e2 0f             	and    $0xf,%edx
  40167e:	03 0c 95 e0 31 40 00 	add    0x4031e0(,%rdx,4),%ecx
  401685:	83 c0 01             	add    $0x1,%eax
  401688:	eb e5                	jmp    40166f <phase_5+0x20>
  40168a:	e8 25 03 00 00       	callq  4019b4 <explode_bomb>
  40168f:	eb d4                	jmp    401665 <phase_5+0x16>
  401691:	83 f9 38             	cmp    $0x38,%ecx
  401694:	75 07                	jne    40169d <phase_5+0x4e>
  401696:	48 83 c4 08          	add    $0x8,%rsp
  40169a:	5b                   	pop    %rbx
  40169b:	5d                   	pop    %rbp
  40169c:	c3                   	retq   
  40169d:	e8 12 03 00 00       	callq  4019b4 <explode_bomb>
  4016a2:	eb f2                	jmp    401696 <phase_5+0x47>

00000000004016a4 <phase_6>:
  4016a4:	55                   	push   %rbp
  4016a5:	48 89 e5             	mov    %rsp,%rbp
  4016a8:	41 55                	push   %r13
  4016aa:	41 54                	push   %r12
  4016ac:	53                   	push   %rbx
  4016ad:	48 83 ec 58          	sub    $0x58,%rsp
  4016b1:	48 8d 75 c0          	lea    -0x40(%rbp),%rsi
  4016b5:	e8 1c 03 00 00       	callq  4019d6 <read_six_numbers>
  4016ba:	41 bc 00 00 00 00    	mov    $0x0,%r12d
  //以上读取6个数字

  4016c0:	eb 29                	jmp    4016eb <phase_6+0x47>
  4016c2:	e8 ed 02 00 00       	callq  4019b4 <explode_bomb>
  4016c7:	eb 37                	jmp    401700 <phase_6+0x5c>
  4016c9:	83 c3 01             	add    $0x1,%ebx
  4016cc:	83 fb 05             	cmp    $0x5,%ebx
  4016cf:	7f 17                	jg     4016e8 <phase_6+0x44>
  4016d1:	49 63 c4             	movslq %r12d,%rax
  4016d4:	48 63 d3             	movslq %ebx,%rdx
  4016d7:	8b 7c 95 c0          	mov    -0x40(%rbp,%rdx,4),%edi
  4016db:	39 7c 85 c0          	cmp    %edi,-0x40(%rbp,%rax,4)
  4016df:	75 e8                	jne    4016c9 <phase_6+0x25>
  4016e1:	e8 ce 02 00 00       	callq  4019b4 <explode_bomb>
  4016e6:	eb e1                	jmp    4016c9 <phase_6+0x25>
  4016e8:	45 89 ec             	mov    %r13d,%r12d
  //输入的六个数字里有相同的爆炸

  4016eb:	41 83 fc 05          	cmp    $0x5,%r12d
  4016ef:	7f 19                	jg     40170a <phase_6+0x66>
  4016f1:	49 63 c4             	movslq %r12d,%rax
  4016f4:	8b 44 85 c0          	mov    -0x40(%rbp,%rax,4),%eax
  4016f8:	83 e8 01             	sub    $0x1,%eax
  4016fb:	83 f8 05             	cmp    $0x5,%eax
  4016fe:	77 c2                	ja     4016c2 <phase_6+0x1e>//Bomb
  401700:	45 8d 6c 24 01       	lea    0x1(%r12),%r13d
  401705:	44 89 eb             	mov    %r13d,%ebx
  401708:	eb c2                	jmp    4016cc <phase_6+0x28>

  
  40170a:	be 00 00 00 00       	mov    $0x0,%esi
  40170f:	eb 08                	jmp    401719 <phase_6+0x75>
  401711:	48 89 54 cd 90       	mov    %rdx,-0x70(%rbp,%rcx,8)
  401716:	83 c6 01             	add    $0x1,%esi
  401719:	83 fe 05             	cmp    $0x5,%esi
  40171c:	7f 1c                	jg     40173a <phase_6+0x96>
  40171e:	b8 01 00 00 00       	mov    $0x1,%eax
  401723:	ba d0 52 40 00       	mov    $0x4052d0,%edx 
  401728:	48 63 ce             	movslq %esi,%rcx
  40172b:	39 44 8d c0          	cmp    %eax,-0x40(%rbp,%rcx,4)
  40172f:	7e e0                	jle    401711 <phase_6+0x6d>
  401731:	48 8b 52 08          	mov    0x8(%rdx),%rdx
  401735:	83 c0 01             	add    $0x1,%eax
  401738:	eb ee                	jmp    401728 <phase_6+0x84>
  40173a:	48 8b 5d 90          	mov    -0x70(%rbp),%rbx
  40173e:	48 89 d9             	mov    %rbx,%rcx
  401741:	b8 01 00 00 00       	mov    $0x1,%eax
  401746:	eb 12                	jmp    40175a <phase_6+0xb6>
  401748:	48 63 d0             	movslq %eax,%rdx
  40174b:	48 8b 54 d5 90       	mov    -0x70(%rbp,%rdx,8),%rdx
  401750:	48 89 51 08          	mov    %rdx,0x8(%rcx)
  401754:	83 c0 01             	add    $0x1,%eax
  401757:	48 89 d1             	mov    %rdx,%rcx
  40175a:	83 f8 05             	cmp    $0x5,%eax
  40175d:	7e e9                	jle    401748 <phase_6+0xa4>
  40175f:	48 c7 41 08 00 00 00 	movq   $0x0,0x8(%rcx)
  401766:	00 

//以下在比较大小
  401767:	41 bc 00 00 00 00    	mov    $0x0,%r12d
  40176d:	eb 08                	jmp    401777 <phase_6+0xd3>
  40176f:	48 8b 5b 08          	mov    0x8(%rbx),%rbx
  401773:	41 83 c4 01          	add    $0x1,%r12d
  401777:	41 83 fc 04          	cmp    $0x4,%r12d
  40177b:	7f 11                	jg     40178e <phase_6+0xea>
  40177d:	48 8b 43 08          	mov    0x8(%rbx),%rax
  401781:	8b 00                	mov    (%rax),%eax
  401783:	39 03                	cmp    %eax,(%rbx)
  401785:	7d e8                	jge    40176f <phase_6+0xcb>
  401787:	e8 28 02 00 00       	callq  4019b4 <explode_bomb>
  40178c:	eb e1                	jmp    40176f <phase_6+0xcb>
  40178e:	48 83 c4 58          	add    $0x58,%rsp
  401792:	5b                   	pop    %rbx
  401793:	41 5c                	pop    %r12
  401795:	41 5d                	pop    %r13
  401797:	5d                   	pop    %rbp
  401798:	c3                   	retq   

0000000000401799 <fun7>:
  401799:	48 85 ff             	test   %rdi,%rdi
  40179c:	74 2f                	je     4017cd <fun7+0x34>
  40179e:	55                   	push   %rbp
  40179f:	48 89 e5             	mov    %rsp,%rbp
  4017a2:	8b 07                	mov    (%rdi),%eax
  4017a4:	39 f0                	cmp    %esi,%eax
  4017a6:	7f 09                	jg     4017b1 <fun7+0x18>
  4017a8:	75 14                	jne    4017be <fun7+0x25>
  4017aa:	b8 00 00 00 00       	mov    $0x0,%eax
  4017af:	5d                   	pop    %rbp
  4017b0:	c3                   	retq   
  4017b1:	48 8b 7f 08          	mov    0x8(%rdi),%rdi
  4017b5:	e8 df ff ff ff       	callq  401799 <fun7>
  4017ba:	01 c0                	add    %eax,%eax
  4017bc:	eb f1                	jmp    4017af <fun7+0x16>
  4017be:	48 8b 7f 10          	mov    0x10(%rdi),%rdi
  4017c2:	e8 d2 ff ff ff       	callq  401799 <fun7>
  4017c7:	8d 44 00 01          	lea    0x1(%rax,%rax,1),%eax
  4017cb:	eb e2                	jmp    4017af <fun7+0x16>
  4017cd:	b8 ff ff ff ff       	mov    $0xffffffff,%eax
  4017d2:	c3                   	retq   

00000000004017d3 <secret_phase>:
  4017d3:	55                   	push   %rbp
  4017d4:	48 89 e5             	mov    %rsp,%rbp
  4017d7:	53                   	push   %rbx
  4017d8:	48 83 ec 08          	sub    $0x8,%rsp
  4017dc:	e8 31 02 00 00       	callq  401a12 <read_line>
  4017e1:	48 89 c7             	mov    %rax,%rdi
  4017e4:	e8 57 f9 ff ff       	callq  401140 <atoi@plt>
  4017e9:	89 c3                	mov    %eax,%ebx
  4017eb:	8d 40 ff             	lea    -0x1(%rax),%eax
  4017ee:	3d e8 03 00 00       	cmp    $0x3e8,%eax
  4017f3:	77 26                	ja     40181b <secret_phase+0x48>
  4017f5:	89 de                	mov    %ebx,%esi
  4017f7:	bf f0 50 40 00       	mov    $0x4050f0,%edi
  4017fc:	e8 98 ff ff ff       	callq  401799 <fun7>
  401801:	85 c0                	test   %eax,%eax
  401803:	75 1d                	jne    401822 <secret_phase+0x4f>
  401805:	bf 70 31 40 00       	mov    $0x403170,%edi
  40180a:	e8 51 f8 ff ff       	callq  401060 <puts@plt>
  40180f:	e8 29 03 00 00       	callq  401b3d <phase_defused>
  401814:	48 83 c4 08          	add    $0x8,%rsp
  401818:	5b                   	pop    %rbx
  401819:	5d                   	pop    %rbp
  40181a:	c3                   	retq   
  40181b:	e8 94 01 00 00       	callq  4019b4 <explode_bomb>
  401820:	eb d3                	jmp    4017f5 <secret_phase+0x22>
  401822:	e8 8d 01 00 00       	callq  4019b4 <explode_bomb>
  401827:	eb dc                	jmp    401805 <secret_phase+0x32>

0000000000401829 <sig_handler>:
  401829:	55                   	push   %rbp
  40182a:	48 89 e5             	mov    %rsp,%rbp
  40182d:	bf 20 32 40 00       	mov    $0x403220,%edi
  401832:	e8 29 f8 ff ff       	callq  401060 <puts@plt>
  401837:	bf 03 00 00 00       	mov    $0x3,%edi
  40183c:	e8 3f f9 ff ff       	callq  401180 <sleep@plt>
  401841:	be e2 32 40 00       	mov    $0x4032e2,%esi
  401846:	bf 01 00 00 00       	mov    $0x1,%edi
  40184b:	b8 00 00 00 00       	mov    $0x0,%eax
  401850:	e8 cb f8 ff ff       	callq  401120 <__printf_chk@plt>
  401855:	48 8b 3d e4 3e 00 00 	mov    0x3ee4(%rip),%rdi        # 405740 <stdout@@GLIBC_2.2.5>
  40185c:	e8 9f f8 ff ff       	callq  401100 <fflush@plt>
  401861:	bf 01 00 00 00       	mov    $0x1,%edi
  401866:	e8 15 f9 ff ff       	callq  401180 <sleep@plt>
  40186b:	bf ea 32 40 00       	mov    $0x4032ea,%edi
  401870:	e8 eb f7 ff ff       	callq  401060 <puts@plt>
  401875:	bf 10 00 00 00       	mov    $0x10,%edi
  40187a:	e8 d1 f8 ff ff       	callq  401150 <exit@plt>

000000000040187f <invalid_phase>:
  40187f:	55                   	push   %rbp
  401880:	48 89 e5             	mov    %rsp,%rbp
  401883:	48 89 fa             	mov    %rdi,%rdx
  401886:	be f2 32 40 00       	mov    $0x4032f2,%esi
  40188b:	bf 01 00 00 00       	mov    $0x1,%edi
  401890:	b8 00 00 00 00       	mov    $0x0,%eax
  401895:	e8 86 f8 ff ff       	callq  401120 <__printf_chk@plt>
  40189a:	bf 08 00 00 00       	mov    $0x8,%edi
  40189f:	e8 ac f8 ff ff       	callq  401150 <exit@plt>

00000000004018a4 <string_length>:
  4018a4:	b8 00 00 00 00       	mov    $0x0,%eax
  4018a9:	80 3f 00             	cmpb   $0x0,(%rdi)
  4018ac:	74 09                	je     4018b7 <string_length+0x13>
  4018ae:	48 83 c7 01          	add    $0x1,%rdi
  4018b2:	83 c0 01             	add    $0x1,%eax
  4018b5:	eb f2                	jmp    4018a9 <string_length+0x5>
  4018b7:	c3                   	retq   

00000000004018b8 <strings_not_equal>:
  4018b8:	55                   	push   %rbp
  4018b9:	48 89 e5             	mov    %rsp,%rbp
  4018bc:	41 55                	push   %r13
  4018be:	41 54                	push   %r12
  4018c0:	53                   	push   %rbx
  4018c1:	48 83 ec 08          	sub    $0x8,%rsp
  4018c5:	48 89 fb             	mov    %rdi,%rbx
  4018c8:	49 89 f4             	mov    %rsi,%r12
  4018cb:	e8 d4 ff ff ff       	callq  4018a4 <string_length>
  4018d0:	41 89 c5             	mov    %eax,%r13d
  4018d3:	4c 89 e7             	mov    %r12,%rdi
  4018d6:	e8 c9 ff ff ff       	callq  4018a4 <string_length>
  4018db:	41 39 c5             	cmp    %eax,%r13d
  4018de:	75 1e                	jne    4018fe <strings_not_equal+0x46>
  4018e0:	0f b6 03             	movzbl (%rbx),%eax
  4018e3:	84 c0                	test   %al,%al
  4018e5:	74 10                	je     4018f7 <strings_not_equal+0x3f>
  4018e7:	41 38 04 24          	cmp    %al,(%r12)
  4018eb:	75 21                	jne    40190e <strings_not_equal+0x56>
  4018ed:	48 83 c3 01          	add    $0x1,%rbx
  4018f1:	49 83 c4 01          	add    $0x1,%r12
  4018f5:	eb e9                	jmp    4018e0 <strings_not_equal+0x28>
  4018f7:	b8 00 00 00 00       	mov    $0x0,%eax
  4018fc:	eb 05                	jmp    401903 <strings_not_equal+0x4b>
  4018fe:	b8 01 00 00 00       	mov    $0x1,%eax
  401903:	48 83 c4 08          	add    $0x8,%rsp
  401907:	5b                   	pop    %rbx
  401908:	41 5c                	pop    %r12
  40190a:	41 5d                	pop    %r13
  40190c:	5d                   	pop    %rbp
  40190d:	c3                   	retq   
  40190e:	b8 01 00 00 00       	mov    $0x1,%eax
  401913:	eb ee                	jmp    401903 <strings_not_equal+0x4b>

0000000000401915 <initialize_bomb>:
  401915:	55                   	push   %rbp
  401916:	48 89 e5             	mov    %rsp,%rbp
  401919:	be 29 18 40 00       	mov    $0x401829,%esi
  40191e:	bf 02 00 00 00       	mov    $0x2,%edi
  401923:	e8 98 f7 ff ff       	callq  4010c0 <signal@plt>
  401928:	5d                   	pop    %rbp
  401929:	c3                   	retq   

000000000040192a <initialize_bomb_solve>:
  40192a:	c3                   	retq   

000000000040192b <blank_line>:
  40192b:	55                   	push   %rbp
  40192c:	48 89 e5             	mov    %rsp,%rbp
  40192f:	41 54                	push   %r12
  401931:	53                   	push   %rbx
  401932:	49 89 fc             	mov    %rdi,%r12
  401935:	41 0f b6 1c 24       	movzbl (%r12),%ebx
  40193a:	84 db                	test   %bl,%bl
  40193c:	74 1e                	je     40195c <blank_line+0x31>
  40193e:	e8 4d f8 ff ff       	callq  401190 <__ctype_b_loc@plt>
  401943:	48 8b 00             	mov    (%rax),%rax
  401946:	49 83 c4 01          	add    $0x1,%r12
  40194a:	48 0f be db          	movsbq %bl,%rbx
  40194e:	f6 44 58 01 20       	testb  $0x20,0x1(%rax,%rbx,2)
  401953:	75 e0                	jne    401935 <blank_line+0xa>
  401955:	b8 00 00 00 00       	mov    $0x0,%eax
  40195a:	eb 05                	jmp    401961 <blank_line+0x36>
  40195c:	b8 01 00 00 00       	mov    $0x1,%eax
  401961:	5b                   	pop    %rbx
  401962:	41 5c                	pop    %r12
  401964:	5d                   	pop    %rbp
  401965:	c3                   	retq   

0000000000401966 <skip>:
  401966:	55                   	push   %rbp
  401967:	48 89 e5             	mov    %rsp,%rbp
  40196a:	53                   	push   %rbx
  40196b:	48 83 ec 08          	sub    $0x8,%rsp
  40196f:	48 63 05 f6 3d 00 00 	movslq 0x3df6(%rip),%rax        # 40576c <num_input_strings>
  401976:	48 8d 3c 80          	lea    (%rax,%rax,4),%rdi
  40197a:	48 c1 e7 04          	shl    $0x4,%rdi
  40197e:	48 81 c7 80 57 40 00 	add    $0x405780,%rdi
  401985:	48 8b 15 e4 3d 00 00 	mov    0x3de4(%rip),%rdx        # 405770 <infile>
  40198c:	be 50 00 00 00       	mov    $0x50,%esi
  401991:	e8 1a f7 ff ff       	callq  4010b0 <fgets@plt>
  401996:	48 89 c3             	mov    %rax,%rbx
  401999:	48 85 c0             	test   %rax,%rax
  40199c:	74 0c                	je     4019aa <skip+0x44>
  40199e:	48 89 c7             	mov    %rax,%rdi
  4019a1:	e8 85 ff ff ff       	callq  40192b <blank_line>
  4019a6:	85 c0                	test   %eax,%eax
  4019a8:	75 c5                	jne    40196f <skip+0x9>
  4019aa:	48 89 d8             	mov    %rbx,%rax
  4019ad:	48 83 c4 08          	add    $0x8,%rsp
  4019b1:	5b                   	pop    %rbx
  4019b2:	5d                   	pop    %rbp
  4019b3:	c3                   	retq   

00000000004019b4 <explode_bomb>:
  4019b4:	55                   	push   %rbp
  4019b5:	48 89 e5             	mov    %rsp,%rbp
  4019b8:	bf 03 33 40 00       	mov    $0x403303,%edi
  4019bd:	e8 9e f6 ff ff       	callq  401060 <puts@plt>
  4019c2:	bf 0c 33 40 00       	mov    $0x40330c,%edi
  4019c7:	e8 94 f6 ff ff       	callq  401060 <puts@plt>
  4019cc:	bf 08 00 00 00       	mov    $0x8,%edi
  4019d1:	e8 7a f7 ff ff       	callq  401150 <exit@plt>

00000000004019d6 <read_six_numbers>:
  4019d6:	55                   	push   %rbp
  4019d7:	48 89 e5             	mov    %rsp,%rbp
  4019da:	48 89 f2             	mov    %rsi,%rdx
  4019dd:	48 8d 4e 04          	lea    0x4(%rsi),%rcx
  4019e1:	48 8d 46 14          	lea    0x14(%rsi),%rax
  4019e5:	50                   	push   %rax
  4019e6:	48 8d 46 10          	lea    0x10(%rsi),%rax
  4019ea:	50                   	push   %rax
  4019eb:	4c 8d 4e 0c          	lea    0xc(%rsi),%r9
  4019ef:	4c 8d 46 08          	lea    0x8(%rsi),%r8
  4019f3:	be 23 33 40 00       	mov    $0x403323,%esi
  4019f8:	b8 00 00 00 00       	mov    $0x0,%eax
  4019fd:	e8 0e f7 ff ff       	callq  401110 <__isoc99_sscanf@plt>
  401a02:	48 83 c4 10          	add    $0x10,%rsp
  401a06:	83 f8 05             	cmp    $0x5,%eax
  401a09:	7e 02                	jle    401a0d <read_six_numbers+0x37>
  401a0b:	c9                   	leaveq 
  401a0c:	c3                   	retq   
  401a0d:	e8 a2 ff ff ff       	callq  4019b4 <explode_bomb>

0000000000401a12 <read_line>:
  401a12:	55                   	push   %rbp
  401a13:	48 89 e5             	mov    %rsp,%rbp
  401a16:	b8 00 00 00 00       	mov    $0x0,%eax
  401a1b:	e8 46 ff ff ff       	callq  401966 <skip>
  401a20:	48 85 c0             	test   %rax,%rax
  401a23:	74 60                	je     401a85 <read_line+0x73>
  401a25:	8b 35 41 3d 00 00    	mov    0x3d41(%rip),%esi        # 40576c <num_input_strings>
  401a2b:	48 63 c6             	movslq %esi,%rax
  401a2e:	48 8d 14 80          	lea    (%rax,%rax,4),%rdx
  401a32:	48 c1 e2 04          	shl    $0x4,%rdx
  401a36:	48 81 c2 80 57 40 00 	add    $0x405780,%rdx
  401a3d:	48 c7 c1 ff ff ff ff 	mov    $0xffffffffffffffff,%rcx
  401a44:	b8 00 00 00 00       	mov    $0x0,%eax
  401a49:	48 89 d7             	mov    %rdx,%rdi
  401a4c:	f2 ae                	repnz scas %es:(%rdi),%al
  401a4e:	48 f7 d1             	not    %rcx
  401a51:	48 83 e9 01          	sub    $0x1,%rcx
  401a55:	83 f9 4e             	cmp    $0x4e,%ecx
  401a58:	0f 8f 99 00 00 00    	jg     401af7 <read_line+0xe5>
  401a5e:	83 e9 01             	sub    $0x1,%ecx
  401a61:	48 63 c9             	movslq %ecx,%rcx
  401a64:	48 63 c6             	movslq %esi,%rax
  401a67:	48 8d 04 80          	lea    (%rax,%rax,4),%rax
  401a6b:	48 c1 e0 04          	shl    $0x4,%rax
  401a6f:	c6 84 01 80 57 40 00 	movb   $0x0,0x405780(%rcx,%rax,1)
  401a76:	00 
  401a77:	8d 46 01             	lea    0x1(%rsi),%eax
  401a7a:	89 05 ec 3c 00 00    	mov    %eax,0x3cec(%rip)        # 40576c <num_input_strings>
  401a80:	48 89 d0             	mov    %rdx,%rax
  401a83:	5d                   	pop    %rbp
  401a84:	c3                   	retq   
  401a85:	48 8b 05 c4 3c 00 00 	mov    0x3cc4(%rip),%rax        # 405750 <stdin@@GLIBC_2.2.5>
  401a8c:	48 39 05 dd 3c 00 00 	cmp    %rax,0x3cdd(%rip)        # 405770 <infile>
  401a93:	74 19                	je     401aae <read_line+0x9c>
  401a95:	bf 53 33 40 00       	mov    $0x403353,%edi
  401a9a:	e8 91 f5 ff ff       	callq  401030 <getenv@plt>
  401a9f:	48 85 c0             	test   %rax,%rax
  401aa2:	74 1e                	je     401ac2 <read_line+0xb0>
  401aa4:	bf 00 00 00 00       	mov    $0x0,%edi
  401aa9:	e8 a2 f6 ff ff       	callq  401150 <exit@plt>
  401aae:	bf 35 33 40 00       	mov    $0x403335,%edi
  401ab3:	e8 a8 f5 ff ff       	callq  401060 <puts@plt>
  401ab8:	bf 08 00 00 00       	mov    $0x8,%edi
  401abd:	e8 8e f6 ff ff       	callq  401150 <exit@plt>
  401ac2:	48 8b 05 87 3c 00 00 	mov    0x3c87(%rip),%rax        # 405750 <stdin@@GLIBC_2.2.5>
  401ac9:	48 89 05 a0 3c 00 00 	mov    %rax,0x3ca0(%rip)        # 405770 <infile>
  401ad0:	b8 00 00 00 00       	mov    $0x0,%eax
  401ad5:	e8 8c fe ff ff       	callq  401966 <skip>
  401ada:	48 85 c0             	test   %rax,%rax
  401add:	0f 85 42 ff ff ff    	jne    401a25 <read_line+0x13>
  401ae3:	bf 35 33 40 00       	mov    $0x403335,%edi
  401ae8:	e8 73 f5 ff ff       	callq  401060 <puts@plt>
  401aed:	bf 00 00 00 00       	mov    $0x0,%edi
  401af2:	e8 59 f6 ff ff       	callq  401150 <exit@plt>
  401af7:	bf 5e 33 40 00       	mov    $0x40335e,%edi
  401afc:	e8 5f f5 ff ff       	callq  401060 <puts@plt>
  401b01:	8b 05 65 3c 00 00    	mov    0x3c65(%rip),%eax        # 40576c <num_input_strings>
  401b07:	8d 50 01             	lea    0x1(%rax),%edx
  401b0a:	89 15 5c 3c 00 00    	mov    %edx,0x3c5c(%rip)        # 40576c <num_input_strings>
  401b10:	48 98                	cltq   
  401b12:	48 6b c0 50          	imul   $0x50,%rax,%rax
  401b16:	48 be 2a 2a 2a 74 72 	movabs $0x636e7572742a2a2a,%rsi
  401b1d:	75 6e 63 
  401b20:	48 bf 61 74 65 64 2a 	movabs $0x2a2a2a64657461,%rdi
  401b27:	2a 2a 00 
  401b2a:	48 89 b0 80 57 40 00 	mov    %rsi,0x405780(%rax)
  401b31:	48 89 b8 88 57 40 00 	mov    %rdi,0x405788(%rax)
  401b38:	e8 77 fe ff ff       	callq  4019b4 <explode_bomb>

0000000000401b3d <phase_defused>:
  401b3d:	83 3d 28 3c 00 00 06 	cmpl   $0x6,0x3c28(%rip)        # 40576c <num_input_strings>
  401b44:	74 01                	je     401b47 <phase_defused+0xa>
  401b46:	c3                   	retq   
  401b47:	55                   	push   %rbp
  401b48:	48 89 e5             	mov    %rsp,%rbp
  401b4b:	48 83 ec 60          	sub    $0x60,%rsp
  401b4f:	4c 8d 45 b0          	lea    -0x50(%rbp),%r8
  401b53:	48 8d 4d a8          	lea    -0x58(%rbp),%rcx
  401b57:	48 8d 55 ac          	lea    -0x54(%rbp),%rdx
  401b5b:	be 79 33 40 00       	mov    $0x403379,%esi
  401b60:	bf 70 58 40 00       	mov    $0x405870,%edi
  401b65:	b8 00 00 00 00       	mov    $0x0,%eax
  401b6a:	e8 a1 f5 ff ff       	callq  401110 <__isoc99_sscanf@plt>
  401b6f:	83 f8 03             	cmp    $0x3,%eax
  401b72:	74 0c                	je     401b80 <phase_defused+0x43>
  401b74:	bf b8 32 40 00       	mov    $0x4032b8,%edi
  401b79:	e8 e2 f4 ff ff       	callq  401060 <puts@plt>
  401b7e:	c9                   	leaveq 
  401b7f:	c3                   	retq   
  401b80:	be 82 33 40 00       	mov    $0x403382,%esi
  401b85:	48 8d 7d b0          	lea    -0x50(%rbp),%rdi
  401b89:	e8 2a fd ff ff       	callq  4018b8 <strings_not_equal>
  401b8e:	85 c0                	test   %eax,%eax
  401b90:	75 e2                	jne    401b74 <phase_defused+0x37>
  401b92:	bf 58 32 40 00       	mov    $0x403258,%edi
  401b97:	e8 c4 f4 ff ff       	callq  401060 <puts@plt>
  401b9c:	bf 80 32 40 00       	mov    $0x403280,%edi
  401ba1:	e8 ba f4 ff ff       	callq  401060 <puts@plt>
  401ba6:	b8 00 00 00 00       	mov    $0x0,%eax
  401bab:	e8 23 fc ff ff       	callq  4017d3 <secret_phase>
  401bb0:	eb c2                	jmp    401b74 <phase_defused+0x37>

0000000000401bb2 <rio_readinitb>:
  401bb2:	89 37                	mov    %esi,(%rdi)
  401bb4:	c7 47 04 00 00 00 00 	movl   $0x0,0x4(%rdi)
  401bbb:	48 8d 47 10          	lea    0x10(%rdi),%rax
  401bbf:	48 89 47 08          	mov    %rax,0x8(%rdi)
  401bc3:	c3                   	retq   

0000000000401bc4 <sigalrm_handler>:
  401bc4:	55                   	push   %rbp
  401bc5:	48 89 e5             	mov    %rsp,%rbp
  401bc8:	b9 00 00 00 00       	mov    $0x0,%ecx
  401bcd:	ba d8 33 40 00       	mov    $0x4033d8,%edx
  401bd2:	be 01 00 00 00       	mov    $0x1,%esi
  401bd7:	48 8b 3d 82 3b 00 00 	mov    0x3b82(%rip),%rdi        # 405760 <stderr@@GLIBC_2.2.5>
  401bde:	b8 00 00 00 00       	mov    $0x0,%eax
  401be3:	e8 88 f5 ff ff       	callq  401170 <__fprintf_chk@plt>
  401be8:	bf 01 00 00 00       	mov    $0x1,%edi
  401bed:	e8 5e f5 ff ff       	callq  401150 <exit@plt>

0000000000401bf2 <__bswap_16>:
  401bf2:	89 f8                	mov    %edi,%eax
  401bf4:	66 c1 c0 08          	rol    $0x8,%ax
  401bf8:	c3                   	retq   

0000000000401bf9 <rio_writen>:
  401bf9:	55                   	push   %rbp
  401bfa:	48 89 e5             	mov    %rsp,%rbp
  401bfd:	41 56                	push   %r14
  401bff:	41 55                	push   %r13
  401c01:	41 54                	push   %r12
  401c03:	53                   	push   %rbx
  401c04:	41 89 fd             	mov    %edi,%r13d
  401c07:	49 89 f4             	mov    %rsi,%r12
  401c0a:	49 89 d6             	mov    %rdx,%r14
  401c0d:	48 89 d3             	mov    %rdx,%rbx
  401c10:	eb 06                	jmp    401c18 <rio_writen+0x1f>
  401c12:	48 29 c3             	sub    %rax,%rbx
  401c15:	49 01 c4             	add    %rax,%r12
  401c18:	48 85 db             	test   %rbx,%rbx
  401c1b:	74 24                	je     401c41 <rio_writen+0x48>
  401c1d:	48 89 da             	mov    %rbx,%rdx
  401c20:	4c 89 e6             	mov    %r12,%rsi
  401c23:	44 89 ef             	mov    %r13d,%edi
  401c26:	e8 45 f4 ff ff       	callq  401070 <write@plt>
  401c2b:	48 85 c0             	test   %rax,%rax
  401c2e:	7f e2                	jg     401c12 <rio_writen+0x19>
  401c30:	e8 0b f4 ff ff       	callq  401040 <__errno_location@plt>
  401c35:	83 38 04             	cmpl   $0x4,(%rax)
  401c38:	75 13                	jne    401c4d <rio_writen+0x54>
  401c3a:	b8 00 00 00 00       	mov    $0x0,%eax
  401c3f:	eb d1                	jmp    401c12 <rio_writen+0x19>
  401c41:	4c 89 f0             	mov    %r14,%rax
  401c44:	5b                   	pop    %rbx
  401c45:	41 5c                	pop    %r12
  401c47:	41 5d                	pop    %r13
  401c49:	41 5e                	pop    %r14
  401c4b:	5d                   	pop    %rbp
  401c4c:	c3                   	retq   
  401c4d:	48 c7 c0 ff ff ff ff 	mov    $0xffffffffffffffff,%rax
  401c54:	eb ee                	jmp    401c44 <rio_writen+0x4b>

0000000000401c56 <urlencode>:
  401c56:	55                   	push   %rbp
  401c57:	48 89 e5             	mov    %rsp,%rbp
  401c5a:	41 55                	push   %r13
  401c5c:	41 54                	push   %r12
  401c5e:	53                   	push   %rbx
  401c5f:	48 83 ec 18          	sub    $0x18,%rsp
  401c63:	48 89 fb             	mov    %rdi,%rbx
  401c66:	49 89 f4             	mov    %rsi,%r12
  401c69:	48 c7 c1 ff ff ff ff 	mov    $0xffffffffffffffff,%rcx
  401c70:	b8 00 00 00 00       	mov    $0x0,%eax
  401c75:	f2 ae                	repnz scas %es:(%rdi),%al
  401c77:	48 f7 d1             	not    %rcx
  401c7a:	8d 41 ff             	lea    -0x1(%rcx),%eax
  401c7d:	eb 10                	jmp    401c8f <urlencode+0x39>
  401c7f:	45 88 04 24          	mov    %r8b,(%r12)
  401c83:	4d 8d 64 24 01       	lea    0x1(%r12),%r12
  401c88:	48 83 c3 01          	add    $0x1,%rbx
  401c8c:	44 89 e8             	mov    %r13d,%eax
  401c8f:	44 8d 68 ff          	lea    -0x1(%rax),%r13d
  401c93:	85 c0                	test   %eax,%eax
  401c95:	0f 84 ad 00 00 00    	je     401d48 <urlencode+0xf2>
  401c9b:	44 0f b6 03          	movzbl (%rbx),%r8d
  401c9f:	41 80 f8 2a          	cmp    $0x2a,%r8b
  401ca3:	0f 94 c2             	sete   %dl
  401ca6:	41 80 f8 2d          	cmp    $0x2d,%r8b
  401caa:	0f 94 c0             	sete   %al
  401cad:	08 c2                	or     %al,%dl
  401caf:	75 ce                	jne    401c7f <urlencode+0x29>
  401cb1:	41 80 f8 2e          	cmp    $0x2e,%r8b
  401cb5:	74 c8                	je     401c7f <urlencode+0x29>
  401cb7:	41 80 f8 5f          	cmp    $0x5f,%r8b
  401cbb:	74 c2                	je     401c7f <urlencode+0x29>
  401cbd:	41 8d 40 d0          	lea    -0x30(%r8),%eax
  401cc1:	3c 09                	cmp    $0x9,%al
  401cc3:	76 ba                	jbe    401c7f <urlencode+0x29>
  401cc5:	41 8d 40 bf          	lea    -0x41(%r8),%eax
  401cc9:	3c 19                	cmp    $0x19,%al
  401ccb:	76 b2                	jbe    401c7f <urlencode+0x29>
  401ccd:	41 8d 40 9f          	lea    -0x61(%r8),%eax
  401cd1:	3c 19                	cmp    $0x19,%al
  401cd3:	76 aa                	jbe    401c7f <urlencode+0x29>
  401cd5:	41 80 f8 20          	cmp    $0x20,%r8b
  401cd9:	74 59                	je     401d34 <urlencode+0xde>
  401cdb:	41 8d 40 e0          	lea    -0x20(%r8),%eax
  401cdf:	3c 5f                	cmp    $0x5f,%al
  401ce1:	0f 96 c2             	setbe  %dl
  401ce4:	41 80 f8 09          	cmp    $0x9,%r8b
  401ce8:	0f 94 c0             	sete   %al
  401ceb:	08 c2                	or     %al,%dl
  401ced:	74 54                	je     401d43 <urlencode+0xed>
  401cef:	45 0f b6 c0          	movzbl %r8b,%r8d
  401cf3:	b9 a6 34 40 00       	mov    $0x4034a6,%ecx
  401cf8:	ba 08 00 00 00       	mov    $0x8,%edx
  401cfd:	be 01 00 00 00       	mov    $0x1,%esi
  401d02:	48 8d 7d d8          	lea    -0x28(%rbp),%rdi
  401d06:	b8 00 00 00 00       	mov    $0x0,%eax
  401d0b:	e8 90 f4 ff ff       	callq  4011a0 <__sprintf_chk@plt>
  401d10:	0f b6 45 d8          	movzbl -0x28(%rbp),%eax
  401d14:	41 88 04 24          	mov    %al,(%r12)
  401d18:	0f b6 45 d9          	movzbl -0x27(%rbp),%eax
  401d1c:	41 88 44 24 01       	mov    %al,0x1(%r12)
  401d21:	0f b6 45 da          	movzbl -0x26(%rbp),%eax
  401d25:	41 88 44 24 02       	mov    %al,0x2(%r12)
  401d2a:	4d 8d 64 24 03       	lea    0x3(%r12),%r12
  401d2f:	e9 54 ff ff ff       	jmpq   401c88 <urlencode+0x32>
  401d34:	41 c6 04 24 2b       	movb   $0x2b,(%r12)
  401d39:	4d 8d 64 24 01       	lea    0x1(%r12),%r12
  401d3e:	e9 45 ff ff ff       	jmpq   401c88 <urlencode+0x32>
  401d43:	b8 ff ff ff ff       	mov    $0xffffffff,%eax
  401d48:	48 83 c4 18          	add    $0x18,%rsp
  401d4c:	5b                   	pop    %rbx
  401d4d:	41 5c                	pop    %r12
  401d4f:	41 5d                	pop    %r13
  401d51:	5d                   	pop    %rbp
  401d52:	c3                   	retq   

0000000000401d53 <rio_read>:
  401d53:	55                   	push   %rbp
  401d54:	48 89 e5             	mov    %rsp,%rbp
  401d57:	41 56                	push   %r14
  401d59:	41 55                	push   %r13
  401d5b:	41 54                	push   %r12
  401d5d:	53                   	push   %rbx
  401d5e:	48 89 fb             	mov    %rdi,%rbx
  401d61:	49 89 f6             	mov    %rsi,%r14
  401d64:	49 89 d5             	mov    %rdx,%r13
  401d67:	eb 17                	jmp    401d80 <rio_read+0x2d>
  401d69:	e8 d2 f2 ff ff       	callq  401040 <__errno_location@plt>
  401d6e:	83 38 04             	cmpl   $0x4,(%rax)
  401d71:	74 0d                	je     401d80 <rio_read+0x2d>
  401d73:	48 c7 c0 ff ff ff ff 	mov    $0xffffffffffffffff,%rax
  401d7a:	eb 58                	jmp    401dd4 <rio_read+0x81>
  401d7c:	4c 89 63 08          	mov    %r12,0x8(%rbx)
  401d80:	44 8b 63 04          	mov    0x4(%rbx),%r12d
  401d84:	45 85 e4             	test   %r12d,%r12d
  401d87:	7f 23                	jg     401dac <rio_read+0x59>
  401d89:	4c 8d 63 10          	lea    0x10(%rbx),%r12
  401d8d:	8b 3b                	mov    (%rbx),%edi
  401d8f:	ba 00 20 00 00       	mov    $0x2000,%edx
  401d94:	4c 89 e6             	mov    %r12,%rsi
  401d97:	e8 04 f3 ff ff       	callq  4010a0 <read@plt>
  401d9c:	89 43 04             	mov    %eax,0x4(%rbx)
  401d9f:	85 c0                	test   %eax,%eax
  401da1:	78 c6                	js     401d69 <rio_read+0x16>
  401da3:	75 d7                	jne    401d7c <rio_read+0x29>
  401da5:	b8 00 00 00 00       	mov    $0x0,%eax
  401daa:	eb 28                	jmp    401dd4 <rio_read+0x81>
  401dac:	49 63 c4             	movslq %r12d,%rax
  401daf:	4c 39 e8             	cmp    %r13,%rax
  401db2:	72 03                	jb     401db7 <rio_read+0x64>
  401db4:	45 89 ec             	mov    %r13d,%r12d
  401db7:	4d 63 ec             	movslq %r12d,%r13
  401dba:	48 8b 73 08          	mov    0x8(%rbx),%rsi
  401dbe:	4c 89 ea             	mov    %r13,%rdx
  401dc1:	4c 89 f7             	mov    %r14,%rdi
  401dc4:	e8 27 f3 ff ff       	callq  4010f0 <memcpy@plt>
  401dc9:	4c 01 6b 08          	add    %r13,0x8(%rbx)
  401dcd:	44 29 63 04          	sub    %r12d,0x4(%rbx)
  401dd1:	4c 89 e8             	mov    %r13,%rax
  401dd4:	5b                   	pop    %rbx
  401dd5:	41 5c                	pop    %r12
  401dd7:	41 5d                	pop    %r13
  401dd9:	41 5e                	pop    %r14
  401ddb:	5d                   	pop    %rbp
  401ddc:	c3                   	retq   

0000000000401ddd <rio_readlineb>:
  401ddd:	55                   	push   %rbp
  401dde:	48 89 e5             	mov    %rsp,%rbp
  401de1:	41 56                	push   %r14
  401de3:	41 55                	push   %r13
  401de5:	41 54                	push   %r12
  401de7:	53                   	push   %rbx
  401de8:	48 83 ec 10          	sub    $0x10,%rsp
  401dec:	49 89 fe             	mov    %rdi,%r14
  401def:	49 89 f4             	mov    %rsi,%r12
  401df2:	49 89 d5             	mov    %rdx,%r13
  401df5:	bb 01 00 00 00       	mov    $0x1,%ebx
  401dfa:	eb 16                	jmp    401e12 <rio_readlineb+0x35>
  401dfc:	85 c0                	test   %eax,%eax
  401dfe:	75 59                	jne    401e59 <rio_readlineb+0x7c>
  401e00:	83 fb 01             	cmp    $0x1,%ebx
  401e03:	75 3f                	jne    401e44 <rio_readlineb+0x67>
  401e05:	b8 00 00 00 00       	mov    $0x0,%eax
  401e0a:	eb 40                	jmp    401e4c <rio_readlineb+0x6f>
  401e0c:	83 c3 01             	add    $0x1,%ebx
  401e0f:	49 89 d4             	mov    %rdx,%r12
  401e12:	48 63 c3             	movslq %ebx,%rax
  401e15:	4c 39 e8             	cmp    %r13,%rax
  401e18:	73 2a                	jae    401e44 <rio_readlineb+0x67>
  401e1a:	ba 01 00 00 00       	mov    $0x1,%edx
  401e1f:	48 8d 75 df          	lea    -0x21(%rbp),%rsi
  401e23:	4c 89 f7             	mov    %r14,%rdi
  401e26:	e8 28 ff ff ff       	callq  401d53 <rio_read>
  401e2b:	83 f8 01             	cmp    $0x1,%eax
  401e2e:	75 cc                	jne    401dfc <rio_readlineb+0x1f>
  401e30:	49 8d 54 24 01       	lea    0x1(%r12),%rdx
  401e35:	0f b6 45 df          	movzbl -0x21(%rbp),%eax
  401e39:	41 88 04 24          	mov    %al,(%r12)
  401e3d:	3c 0a                	cmp    $0xa,%al
  401e3f:	75 cb                	jne    401e0c <rio_readlineb+0x2f>
  401e41:	49 89 d4             	mov    %rdx,%r12
  401e44:	41 c6 04 24 00       	movb   $0x0,(%r12)
  401e49:	48 63 c3             	movslq %ebx,%rax
  401e4c:	48 83 c4 10          	add    $0x10,%rsp
  401e50:	5b                   	pop    %rbx
  401e51:	41 5c                	pop    %r12
  401e53:	41 5d                	pop    %r13
  401e55:	41 5e                	pop    %r14
  401e57:	5d                   	pop    %rbp
  401e58:	c3                   	retq   
  401e59:	48 c7 c0 ff ff ff ff 	mov    $0xffffffffffffffff,%rax
  401e60:	eb ea                	jmp    401e4c <rio_readlineb+0x6f>

0000000000401e62 <submitr>:
  401e62:	55                   	push   %rbp
  401e63:	48 89 e5             	mov    %rsp,%rbp
  401e66:	41 57                	push   %r15
  401e68:	41 56                	push   %r14
  401e6a:	41 55                	push   %r13
  401e6c:	41 54                	push   %r12
  401e6e:	53                   	push   %rbx
  401e6f:	4c 8d 9c 24 00 60 ff 	lea    -0xa000(%rsp),%r11
  401e76:	ff 
  401e77:	48 81 ec 00 10 00 00 	sub    $0x1000,%rsp
  401e7e:	48 83 0c 24 00       	orq    $0x0,(%rsp)
  401e83:	4c 39 dc             	cmp    %r11,%rsp
  401e86:	75 ef                	jne    401e77 <submitr+0x15>
  401e88:	48 83 ec 58          	sub    $0x58,%rsp
  401e8c:	48 89 bd 90 5f ff ff 	mov    %rdi,-0xa070(%rbp)
  401e93:	89 b5 8c 5f ff ff    	mov    %esi,-0xa074(%rbp)
  401e99:	48 89 95 98 5f ff ff 	mov    %rdx,-0xa068(%rbp)
  401ea0:	49 89 cd             	mov    %rcx,%r13
  401ea3:	4d 89 c4             	mov    %r8,%r12
  401ea6:	4d 89 cf             	mov    %r9,%r15
  401ea9:	4c 8b 75 10          	mov    0x10(%rbp),%r14
  401ead:	c7 85 ac 7f ff ff 00 	movl   $0x0,-0x8054(%rbp)
  401eb4:	00 00 00 
  401eb7:	ba 00 00 00 00       	mov    $0x0,%edx
  401ebc:	be 01 00 00 00       	mov    $0x1,%esi
  401ec1:	bf 02 00 00 00       	mov    $0x2,%edi
  401ec6:	e8 e5 f2 ff ff       	callq  4011b0 <socket@plt>
  401ecb:	85 c0                	test   %eax,%eax
  401ecd:	0f 88 77 02 00 00    	js     40214a <submitr+0x2e8>
  401ed3:	89 c3                	mov    %eax,%ebx
  401ed5:	48 8b bd 90 5f ff ff 	mov    -0xa070(%rbp),%rdi
  401edc:	e8 ef f1 ff ff       	callq  4010d0 <gethostbyname@plt>
  401ee1:	48 85 c0             	test   %rax,%rax
  401ee4:	0f 84 b0 02 00 00    	je     40219a <submitr+0x338>
  401eea:	48 c7 45 c0 00 00 00 	movq   $0x0,-0x40(%rbp)
  401ef1:	00 
  401ef2:	48 c7 45 c8 00 00 00 	movq   $0x0,-0x38(%rbp)
  401ef9:	00 
  401efa:	66 c7 45 c0 02 00    	movw   $0x2,-0x40(%rbp)
  401f00:	48 63 50 14          	movslq 0x14(%rax),%rdx
  401f04:	48 8b 40 18          	mov    0x18(%rax),%rax
  401f08:	48 8b 30             	mov    (%rax),%rsi
  401f0b:	b9 0c 00 00 00       	mov    $0xc,%ecx
  401f10:	48 8d 7d c4          	lea    -0x3c(%rbp),%rdi
  401f14:	e8 c7 f1 ff ff       	callq  4010e0 <__memmove_chk@plt>
  401f19:	0f b7 bd 8c 5f ff ff 	movzwl -0xa074(%rbp),%edi
  401f20:	e8 cd fc ff ff       	callq  401bf2 <__bswap_16>
  401f25:	66 89 45 c2          	mov    %ax,-0x3e(%rbp)
  401f29:	ba 10 00 00 00       	mov    $0x10,%edx
  401f2e:	48 8d 75 c0          	lea    -0x40(%rbp),%rsi
  401f32:	89 df                	mov    %ebx,%edi
  401f34:	e8 27 f2 ff ff       	callq  401160 <connect@plt>
  401f39:	85 c0                	test   %eax,%eax
  401f3b:	0f 88 c3 02 00 00    	js     402204 <submitr+0x3a2>
  401f41:	48 c7 c6 ff ff ff ff 	mov    $0xffffffffffffffff,%rsi
  401f48:	b8 00 00 00 00       	mov    $0x0,%eax
  401f4d:	48 89 f1             	mov    %rsi,%rcx
  401f50:	4c 89 ff             	mov    %r15,%rdi
  401f53:	f2 ae                	repnz scas %es:(%rdi),%al
  401f55:	48 89 ca             	mov    %rcx,%rdx
  401f58:	48 f7 d2             	not    %rdx
  401f5b:	48 89 f1             	mov    %rsi,%rcx
  401f5e:	48 8b bd 98 5f ff ff 	mov    -0xa068(%rbp),%rdi
  401f65:	f2 ae                	repnz scas %es:(%rdi),%al
  401f67:	48 f7 d1             	not    %rcx
  401f6a:	49 89 c8             	mov    %rcx,%r8
  401f6d:	48 89 f1             	mov    %rsi,%rcx
  401f70:	4c 89 ef             	mov    %r13,%rdi
  401f73:	f2 ae                	repnz scas %es:(%rdi),%al
  401f75:	48 f7 d1             	not    %rcx
  401f78:	4d 8d 44 08 fe       	lea    -0x2(%r8,%rcx,1),%r8
  401f7d:	48 89 f1             	mov    %rsi,%rcx
  401f80:	4c 89 e7             	mov    %r12,%rdi
  401f83:	f2 ae                	repnz scas %es:(%rdi),%al
  401f85:	48 89 c8             	mov    %rcx,%rax
  401f88:	48 f7 d0             	not    %rax
  401f8b:	49 8d 4c 00 ff       	lea    -0x1(%r8,%rax,1),%rcx
  401f90:	48 8d 44 52 fd       	lea    -0x3(%rdx,%rdx,2),%rax
  401f95:	48 8d 84 01 80 00 00 	lea    0x80(%rcx,%rax,1),%rax
  401f9c:	00 
  401f9d:	48 3d 00 20 00 00    	cmp    $0x2000,%rax
  401fa3:	0f 87 b7 02 00 00    	ja     402260 <submitr+0x3fe>
  401fa9:	48 8d b5 b0 9f ff ff 	lea    -0x6050(%rbp),%rsi
  401fb0:	b9 00 04 00 00       	mov    $0x400,%ecx
  401fb5:	b8 00 00 00 00       	mov    $0x0,%eax
  401fba:	48 89 f7             	mov    %rsi,%rdi
  401fbd:	f3 48 ab             	rep stos %rax,%es:(%rdi)
  401fc0:	4c 89 ff             	mov    %r15,%rdi
  401fc3:	e8 8e fc ff ff       	callq  401c56 <urlencode>
  401fc8:	85 c0                	test   %eax,%eax
  401fca:	0f 88 02 03 00 00    	js     4022d2 <submitr+0x470>
  401fd0:	4c 8d bd b0 bf ff ff 	lea    -0x4050(%rbp),%r15
  401fd7:	48 8d 85 b0 9f ff ff 	lea    -0x6050(%rbp),%rax
  401fde:	50                   	push   %rax
  401fdf:	41 54                	push   %r12
  401fe1:	4d 89 e9             	mov    %r13,%r9
  401fe4:	4c 8b 85 98 5f ff ff 	mov    -0xa068(%rbp),%r8
  401feb:	b9 00 34 40 00       	mov    $0x403400,%ecx
  401ff0:	ba 00 20 00 00       	mov    $0x2000,%edx
  401ff5:	be 01 00 00 00       	mov    $0x1,%esi
  401ffa:	4c 89 ff             	mov    %r15,%rdi
  401ffd:	b8 00 00 00 00       	mov    $0x0,%eax
  402002:	e8 99 f1 ff ff       	callq  4011a0 <__sprintf_chk@plt>
  402007:	48 c7 c1 ff ff ff ff 	mov    $0xffffffffffffffff,%rcx
  40200e:	b8 00 00 00 00       	mov    $0x0,%eax
  402013:	4c 89 ff             	mov    %r15,%rdi
  402016:	f2 ae                	repnz scas %es:(%rdi),%al
  402018:	48 f7 d1             	not    %rcx
  40201b:	48 8d 51 ff          	lea    -0x1(%rcx),%rdx
  40201f:	4c 89 fe             	mov    %r15,%rsi
  402022:	89 df                	mov    %ebx,%edi
  402024:	e8 d0 fb ff ff       	callq  401bf9 <rio_writen>
  402029:	48 83 c4 10          	add    $0x10,%rsp
  40202d:	48 85 c0             	test   %rax,%rax
  402030:	0f 88 28 03 00 00    	js     40235e <submitr+0x4fc>
  402036:	89 de                	mov    %ebx,%esi
  402038:	48 8d bd b0 df ff ff 	lea    -0x2050(%rbp),%rdi
  40203f:	e8 6e fb ff ff       	callq  401bb2 <rio_readinitb>
  402044:	ba 00 20 00 00       	mov    $0x2000,%edx
  402049:	48 8d b5 b0 bf ff ff 	lea    -0x4050(%rbp),%rsi
  402050:	48 8d bd b0 df ff ff 	lea    -0x2050(%rbp),%rdi
  402057:	e8 81 fd ff ff       	callq  401ddd <rio_readlineb>
  40205c:	48 85 c0             	test   %rax,%rax
  40205f:	0f 8e 57 03 00 00    	jle    4023bc <submitr+0x55a>
  402065:	4c 8d 85 a0 5f ff ff 	lea    -0xa060(%rbp),%r8
  40206c:	48 8d 8d ac 7f ff ff 	lea    -0x8054(%rbp),%rcx
  402073:	48 8d 95 b0 7f ff ff 	lea    -0x8050(%rbp),%rdx
  40207a:	be ad 34 40 00       	mov    $0x4034ad,%esi
  40207f:	48 8d bd b0 bf ff ff 	lea    -0x4050(%rbp),%rdi
  402086:	b8 00 00 00 00       	mov    $0x0,%eax
  40208b:	e8 80 f0 ff ff       	callq  401110 <__isoc99_sscanf@plt>
  402090:	44 8b 85 ac 7f ff ff 	mov    -0x8054(%rbp),%r8d
  402097:	41 81 f8 c8 00 00 00 	cmp    $0xc8,%r8d
  40209e:	0f 85 8b 03 00 00    	jne    40242f <submitr+0x5cd>
  4020a4:	48 8d b5 b0 bf ff ff 	lea    -0x4050(%rbp),%rsi
  4020ab:	bf be 34 40 00       	mov    $0x4034be,%edi
  4020b0:	b9 03 00 00 00       	mov    $0x3,%ecx
  4020b5:	f3 a6                	repz cmpsb %es:(%rdi),%ds:(%rsi)
  4020b7:	0f 97 c0             	seta   %al
  4020ba:	1c 00                	sbb    $0x0,%al
  4020bc:	84 c0                	test   %al,%al
  4020be:	0f 84 9e 03 00 00    	je     402462 <submitr+0x600>
  4020c4:	ba 00 20 00 00       	mov    $0x2000,%edx
  4020c9:	48 8d b5 b0 bf ff ff 	lea    -0x4050(%rbp),%rsi
  4020d0:	48 8d bd b0 df ff ff 	lea    -0x2050(%rbp),%rdi
  4020d7:	e8 01 fd ff ff       	callq  401ddd <rio_readlineb>
  4020dc:	48 85 c0             	test   %rax,%rax
  4020df:	7f c3                	jg     4020a4 <submitr+0x242>
  4020e1:	48 b8 45 72 72 6f 72 	movabs $0x43203a726f727245,%rax
  4020e8:	3a 20 43 
  4020eb:	48 ba 6c 69 65 6e 74 	movabs $0x6e7520746e65696c,%rdx
  4020f2:	20 75 6e 
  4020f5:	49 89 06             	mov    %rax,(%r14)
  4020f8:	49 89 56 08          	mov    %rdx,0x8(%r14)
  4020fc:	48 b8 61 62 6c 65 20 	movabs $0x206f7420656c6261,%rax
  402103:	74 6f 20 
  402106:	48 ba 72 65 61 64 20 	movabs $0x6165682064616572,%rdx
  40210d:	68 65 61 
  402110:	49 89 46 10          	mov    %rax,0x10(%r14)
  402114:	49 89 56 18          	mov    %rdx,0x18(%r14)
  402118:	48 b8 64 65 72 73 20 	movabs $0x6f72662073726564,%rax
  40211f:	66 72 6f 
  402122:	48 ba 6d 20 73 65 72 	movabs $0x726576726573206d,%rdx
  402129:	76 65 72 
  40212c:	49 89 46 20          	mov    %rax,0x20(%r14)
  402130:	49 89 56 28          	mov    %rdx,0x28(%r14)
  402134:	41 c6 46 30 00       	movb   $0x0,0x30(%r14)
  402139:	89 df                	mov    %ebx,%edi
  40213b:	e8 50 ef ff ff       	callq  401090 <close@plt>
  402140:	b8 ff ff ff ff       	mov    $0xffffffff,%eax
  402145:	e9 66 03 00 00       	jmpq   4024b0 <submitr+0x64e>
  40214a:	48 b8 45 72 72 6f 72 	movabs $0x43203a726f727245,%rax
  402151:	3a 20 43 
  402154:	48 ba 6c 69 65 6e 74 	movabs $0x6e7520746e65696c,%rdx
  40215b:	20 75 6e 
  40215e:	49 89 06             	mov    %rax,(%r14)
  402161:	49 89 56 08          	mov    %rdx,0x8(%r14)
  402165:	48 b8 61 62 6c 65 20 	movabs $0x206f7420656c6261,%rax
  40216c:	74 6f 20 
  40216f:	48 ba 63 72 65 61 74 	movabs $0x7320657461657263,%rdx
  402176:	65 20 73 
  402179:	49 89 46 10          	mov    %rax,0x10(%r14)
  40217d:	49 89 56 18          	mov    %rdx,0x18(%r14)
  402181:	41 c7 46 20 6f 63 6b 	movl   $0x656b636f,0x20(%r14)
  402188:	65 
  402189:	66 41 c7 46 24 74 00 	movw   $0x74,0x24(%r14)
  402190:	b8 ff ff ff ff       	mov    $0xffffffff,%eax
  402195:	e9 16 03 00 00       	jmpq   4024b0 <submitr+0x64e>
  40219a:	48 b8 45 72 72 6f 72 	movabs $0x44203a726f727245,%rax
  4021a1:	3a 20 44 
  4021a4:	48 ba 4e 53 20 69 73 	movabs $0x6e7520736920534e,%rdx
  4021ab:	20 75 6e 
  4021ae:	49 89 06             	mov    %rax,(%r14)
  4021b1:	49 89 56 08          	mov    %rdx,0x8(%r14)
  4021b5:	48 b8 61 62 6c 65 20 	movabs $0x206f7420656c6261,%rax
  4021bc:	74 6f 20 
  4021bf:	48 ba 72 65 73 6f 6c 	movabs $0x2065766c6f736572,%rdx
  4021c6:	76 65 20 
  4021c9:	49 89 46 10          	mov    %rax,0x10(%r14)
  4021cd:	49 89 56 18          	mov    %rdx,0x18(%r14)
  4021d1:	48 b8 73 65 72 76 65 	movabs $0x6120726576726573,%rax
  4021d8:	72 20 61 
  4021db:	49 89 46 20          	mov    %rax,0x20(%r14)
  4021df:	41 c7 46 28 64 64 72 	movl   $0x65726464,0x28(%r14)
  4021e6:	65 
  4021e7:	66 41 c7 46 2c 73 73 	movw   $0x7373,0x2c(%r14)
  4021ee:	41 c6 46 2e 00       	movb   $0x0,0x2e(%r14)
  4021f3:	89 df                	mov    %ebx,%edi
  4021f5:	e8 96 ee ff ff       	callq  401090 <close@plt>
  4021fa:	b8 ff ff ff ff       	mov    $0xffffffff,%eax
  4021ff:	e9 ac 02 00 00       	jmpq   4024b0 <submitr+0x64e>
  402204:	48 b8 45 72 72 6f 72 	movabs $0x55203a726f727245,%rax
  40220b:	3a 20 55 
  40220e:	48 ba 6e 61 62 6c 65 	movabs $0x6f7420656c62616e,%rdx
  402215:	20 74 6f 
  402218:	49 89 06             	mov    %rax,(%r14)
  40221b:	49 89 56 08          	mov    %rdx,0x8(%r14)
  40221f:	48 b8 20 63 6f 6e 6e 	movabs $0x7463656e6e6f6320,%rax
  402226:	65 63 74 
  402229:	48 ba 20 74 6f 20 74 	movabs $0x20656874206f7420,%rdx
  402230:	68 65 20 
  402233:	49 89 46 10          	mov    %rax,0x10(%r14)
  402237:	49 89 56 18          	mov    %rdx,0x18(%r14)
  40223b:	41 c7 46 20 73 65 72 	movl   $0x76726573,0x20(%r14)
  402242:	76 
  402243:	66 41 c7 46 24 65 72 	movw   $0x7265,0x24(%r14)
  40224a:	41 c6 46 26 00       	movb   $0x0,0x26(%r14)
  40224f:	89 df                	mov    %ebx,%edi
  402251:	e8 3a ee ff ff       	callq  401090 <close@plt>
  402256:	b8 ff ff ff ff       	mov    $0xffffffff,%eax
  40225b:	e9 50 02 00 00       	jmpq   4024b0 <submitr+0x64e>
  402260:	48 b8 45 72 72 6f 72 	movabs $0x52203a726f727245,%rax
  402267:	3a 20 52 
  40226a:	48 ba 65 73 75 6c 74 	movabs $0x747320746c757365,%rdx
  402271:	20 73 74 
  402274:	49 89 06             	mov    %rax,(%r14)
  402277:	49 89 56 08          	mov    %rdx,0x8(%r14)
  40227b:	48 b8 72 69 6e 67 20 	movabs $0x6f6f7420676e6972,%rax
  402282:	74 6f 6f 
  402285:	48 ba 20 6c 61 72 67 	movabs $0x202e656772616c20,%rdx
  40228c:	65 2e 20 
  40228f:	49 89 46 10          	mov    %rax,0x10(%r14)
  402293:	49 89 56 18          	mov    %rdx,0x18(%r14)
  402297:	48 b8 49 6e 63 72 65 	movabs $0x6573616572636e49,%rax
  40229e:	61 73 65 
  4022a1:	48 ba 20 53 55 42 4d 	movabs $0x5254494d42555320,%rdx
  4022a8:	49 54 52 
  4022ab:	49 89 46 20          	mov    %rax,0x20(%r14)
  4022af:	49 89 56 28          	mov    %rdx,0x28(%r14)
  4022b3:	48 b8 5f 4d 41 58 42 	movabs $0x46554258414d5f,%rax
  4022ba:	55 46 00 
  4022bd:	49 89 46 30          	mov    %rax,0x30(%r14)
  4022c1:	89 df                	mov    %ebx,%edi
  4022c3:	e8 c8 ed ff ff       	callq  401090 <close@plt>
  4022c8:	b8 ff ff ff ff       	mov    $0xffffffff,%eax
  4022cd:	e9 de 01 00 00       	jmpq   4024b0 <submitr+0x64e>
  4022d2:	48 b8 45 72 72 6f 72 	movabs $0x52203a726f727245,%rax
  4022d9:	3a 20 52 
  4022dc:	48 ba 65 73 75 6c 74 	movabs $0x747320746c757365,%rdx
  4022e3:	20 73 74 
  4022e6:	49 89 06             	mov    %rax,(%r14)
  4022e9:	49 89 56 08          	mov    %rdx,0x8(%r14)
  4022ed:	48 b8 72 69 6e 67 20 	movabs $0x6e6f6320676e6972,%rax
  4022f4:	63 6f 6e 
  4022f7:	48 ba 74 61 69 6e 73 	movabs $0x6e6120736e696174,%rdx
  4022fe:	20 61 6e 
  402301:	49 89 46 10          	mov    %rax,0x10(%r14)
  402305:	49 89 56 18          	mov    %rdx,0x18(%r14)
  402309:	48 b8 20 69 6c 6c 65 	movabs $0x6c6167656c6c6920,%rax
  402310:	67 61 6c 
  402313:	48 ba 20 6f 72 20 75 	movabs $0x72706e7520726f20,%rdx
  40231a:	6e 70 72 
  40231d:	49 89 46 20          	mov    %rax,0x20(%r14)
  402321:	49 89 56 28          	mov    %rdx,0x28(%r14)
  402325:	48 b8 69 6e 74 61 62 	movabs $0x20656c6261746e69,%rax
  40232c:	6c 65 20 
  40232f:	48 ba 63 68 61 72 61 	movabs $0x6574636172616863,%rdx
  402336:	63 74 65 
  402339:	49 89 46 30          	mov    %rax,0x30(%r14)
  40233d:	49 89 56 38          	mov    %rdx,0x38(%r14)
  402341:	66 41 c7 46 40 72 2e 	movw   $0x2e72,0x40(%r14)
  402348:	41 c6 46 42 00       	movb   $0x0,0x42(%r14)
  40234d:	89 df                	mov    %ebx,%edi
  40234f:	e8 3c ed ff ff       	callq  401090 <close@plt>
  402354:	b8 ff ff ff ff       	mov    $0xffffffff,%eax
  402359:	e9 52 01 00 00       	jmpq   4024b0 <submitr+0x64e>
  40235e:	48 b8 45 72 72 6f 72 	movabs $0x43203a726f727245,%rax
  402365:	3a 20 43 
  402368:	48 ba 6c 69 65 6e 74 	movabs $0x6e7520746e65696c,%rdx
  40236f:	20 75 6e 
  402372:	49 89 06             	mov    %rax,(%r14)
  402375:	49 89 56 08          	mov    %rdx,0x8(%r14)
  402379:	48 b8 61 62 6c 65 20 	movabs $0x206f7420656c6261,%rax
  402380:	74 6f 20 
  402383:	48 ba 77 72 69 74 65 	movabs $0x6f74206574697277,%rdx
  40238a:	20 74 6f 
  40238d:	49 89 46 10          	mov    %rax,0x10(%r14)
  402391:	49 89 56 18          	mov    %rdx,0x18(%r14)
  402395:	48 b8 20 74 68 65 20 	movabs $0x7265732065687420,%rax
  40239c:	73 65 72 
  40239f:	49 89 46 20          	mov    %rax,0x20(%r14)
  4023a3:	41 c7 46 28 76 65 72 	movl   $0x726576,0x28(%r14)
  4023aa:	00 
  4023ab:	89 df                	mov    %ebx,%edi
  4023ad:	e8 de ec ff ff       	callq  401090 <close@plt>
  4023b2:	b8 ff ff ff ff       	mov    $0xffffffff,%eax
  4023b7:	e9 f4 00 00 00       	jmpq   4024b0 <submitr+0x64e>
  4023bc:	48 b8 45 72 72 6f 72 	movabs $0x43203a726f727245,%rax
  4023c3:	3a 20 43 
  4023c6:	48 ba 6c 69 65 6e 74 	movabs $0x6e7520746e65696c,%rdx
  4023cd:	20 75 6e 
  4023d0:	49 89 06             	mov    %rax,(%r14)
  4023d3:	49 89 56 08          	mov    %rdx,0x8(%r14)
  4023d7:	48 b8 61 62 6c 65 20 	movabs $0x206f7420656c6261,%rax
  4023de:	74 6f 20 
  4023e1:	48 ba 72 65 61 64 20 	movabs $0x7269662064616572,%rdx
  4023e8:	66 69 72 
  4023eb:	49 89 46 10          	mov    %rax,0x10(%r14)
  4023ef:	49 89 56 18          	mov    %rdx,0x18(%r14)
  4023f3:	48 b8 73 74 20 68 65 	movabs $0x6564616568207473,%rax
  4023fa:	61 64 65 
  4023fd:	48 ba 72 20 66 72 6f 	movabs $0x73206d6f72662072,%rdx
  402404:	6d 20 73 
  402407:	49 89 46 20          	mov    %rax,0x20(%r14)
  40240b:	49 89 56 28          	mov    %rdx,0x28(%r14)
  40240f:	41 c7 46 30 65 72 76 	movl   $0x65767265,0x30(%r14)
  402416:	65 
  402417:	66 41 c7 46 34 72 00 	movw   $0x72,0x34(%r14)
  40241e:	89 df                	mov    %ebx,%edi
  402420:	e8 6b ec ff ff       	callq  401090 <close@plt>
  402425:	b8 ff ff ff ff       	mov    $0xffffffff,%eax
  40242a:	e9 81 00 00 00       	jmpq   4024b0 <submitr+0x64e>
  40242f:	4c 8d 8d a0 5f ff ff 	lea    -0xa060(%rbp),%r9
  402436:	b9 50 34 40 00       	mov    $0x403450,%ecx
  40243b:	48 c7 c2 ff ff ff ff 	mov    $0xffffffffffffffff,%rdx
  402442:	be 01 00 00 00       	mov    $0x1,%esi
  402447:	4c 89 f7             	mov    %r14,%rdi
  40244a:	b8 00 00 00 00       	mov    $0x0,%eax
  40244f:	e8 4c ed ff ff       	callq  4011a0 <__sprintf_chk@plt>
  402454:	89 df                	mov    %ebx,%edi
  402456:	e8 35 ec ff ff       	callq  401090 <close@plt>
  40245b:	b8 ff ff ff ff       	mov    $0xffffffff,%eax
  402460:	eb 4e                	jmp    4024b0 <submitr+0x64e>
  402462:	ba 00 20 00 00       	mov    $0x2000,%edx
  402467:	48 8d b5 b0 bf ff ff 	lea    -0x4050(%rbp),%rsi
  40246e:	48 8d bd b0 df ff ff 	lea    -0x2050(%rbp),%rdi
  402475:	e8 63 f9 ff ff       	callq  401ddd <rio_readlineb>
  40247a:	48 85 c0             	test   %rax,%rax
  40247d:	7e 40                	jle    4024bf <submitr+0x65d>
  40247f:	48 8d b5 b0 bf ff ff 	lea    -0x4050(%rbp),%rsi
  402486:	4c 89 f7             	mov    %r14,%rdi
  402489:	e8 c2 eb ff ff       	callq  401050 <strcpy@plt>
  40248e:	89 df                	mov    %ebx,%edi
  402490:	e8 fb eb ff ff       	callq  401090 <close@plt>
  402495:	bf c1 34 40 00       	mov    $0x4034c1,%edi
  40249a:	b9 03 00 00 00       	mov    $0x3,%ecx
  40249f:	4c 89 f6             	mov    %r14,%rsi
  4024a2:	f3 a6                	repz cmpsb %es:(%rdi),%ds:(%rsi)
  4024a4:	0f 97 c0             	seta   %al
  4024a7:	1c 00                	sbb    $0x0,%al
  4024a9:	0f be c0             	movsbl %al,%eax
  4024ac:	85 c0                	test   %eax,%eax
  4024ae:	75 7e                	jne    40252e <submitr+0x6cc>
  4024b0:	48 8d 65 d8          	lea    -0x28(%rbp),%rsp
  4024b4:	5b                   	pop    %rbx
  4024b5:	41 5c                	pop    %r12
  4024b7:	41 5d                	pop    %r13
  4024b9:	41 5e                	pop    %r14
  4024bb:	41 5f                	pop    %r15
  4024bd:	5d                   	pop    %rbp
  4024be:	c3                   	retq   
  4024bf:	48 b8 45 72 72 6f 72 	movabs $0x43203a726f727245,%rax
  4024c6:	3a 20 43 
  4024c9:	48 ba 6c 69 65 6e 74 	movabs $0x6e7520746e65696c,%rdx
  4024d0:	20 75 6e 
  4024d3:	49 89 06             	mov    %rax,(%r14)
  4024d6:	49 89 56 08          	mov    %rdx,0x8(%r14)
  4024da:	48 b8 61 62 6c 65 20 	movabs $0x206f7420656c6261,%rax
  4024e1:	74 6f 20 
  4024e4:	48 ba 72 65 61 64 20 	movabs $0x6174732064616572,%rdx
  4024eb:	73 74 61 
  4024ee:	49 89 46 10          	mov    %rax,0x10(%r14)
  4024f2:	49 89 56 18          	mov    %rdx,0x18(%r14)
  4024f6:	48 b8 74 75 73 20 6d 	movabs $0x7373656d20737574,%rax
  4024fd:	65 73 73 
  402500:	48 ba 61 67 65 20 66 	movabs $0x6d6f726620656761,%rdx
  402507:	72 6f 6d 
  40250a:	49 89 46 20          	mov    %rax,0x20(%r14)
  40250e:	49 89 56 28          	mov    %rdx,0x28(%r14)
  402512:	48 b8 20 73 65 72 76 	movabs $0x72657672657320,%rax
  402519:	65 72 00 
  40251c:	49 89 46 30          	mov    %rax,0x30(%r14)
  402520:	89 df                	mov    %ebx,%edi
  402522:	e8 69 eb ff ff       	callq  401090 <close@plt>
  402527:	b8 ff ff ff ff       	mov    $0xffffffff,%eax
  40252c:	eb 82                	jmp    4024b0 <submitr+0x64e>
  40252e:	b8 ff ff ff ff       	mov    $0xffffffff,%eax
  402533:	e9 78 ff ff ff       	jmpq   4024b0 <submitr+0x64e>

0000000000402538 <init_timeout>:
  402538:	55                   	push   %rbp
  402539:	48 89 e5             	mov    %rsp,%rbp
  40253c:	53                   	push   %rbx
  40253d:	48 83 ec 08          	sub    $0x8,%rsp
  402541:	85 ff                	test   %edi,%edi
  402543:	74 1a                	je     40255f <init_timeout+0x27>
  402545:	89 fb                	mov    %edi,%ebx
  402547:	78 1d                	js     402566 <init_timeout+0x2e>
  402549:	be c4 1b 40 00       	mov    $0x401bc4,%esi
  40254e:	bf 0e 00 00 00       	mov    $0xe,%edi
  402553:	e8 68 eb ff ff       	callq  4010c0 <signal@plt>
  402558:	89 df                	mov    %ebx,%edi
  40255a:	e8 21 eb ff ff       	callq  401080 <alarm@plt>
  40255f:	48 83 c4 08          	add    $0x8,%rsp
  402563:	5b                   	pop    %rbx
  402564:	5d                   	pop    %rbp
  402565:	c3                   	retq   
  402566:	bb 00 00 00 00       	mov    $0x0,%ebx
  40256b:	eb dc                	jmp    402549 <init_timeout+0x11>

000000000040256d <init_driver>:
  40256d:	55                   	push   %rbp
  40256e:	48 89 e5             	mov    %rsp,%rbp
  402571:	41 54                	push   %r12
  402573:	53                   	push   %rbx
  402574:	48 83 ec 10          	sub    $0x10,%rsp
  402578:	49 89 fc             	mov    %rdi,%r12
  40257b:	be 01 00 00 00       	mov    $0x1,%esi
  402580:	bf 0d 00 00 00       	mov    $0xd,%edi
  402585:	e8 36 eb ff ff       	callq  4010c0 <signal@plt>
  40258a:	be 01 00 00 00       	mov    $0x1,%esi
  40258f:	bf 1d 00 00 00       	mov    $0x1d,%edi
  402594:	e8 27 eb ff ff       	callq  4010c0 <signal@plt>
  402599:	be 01 00 00 00       	mov    $0x1,%esi
  40259e:	bf 1d 00 00 00       	mov    $0x1d,%edi
  4025a3:	e8 18 eb ff ff       	callq  4010c0 <signal@plt>
  4025a8:	ba 00 00 00 00       	mov    $0x0,%edx
  4025ad:	be 01 00 00 00       	mov    $0x1,%esi
  4025b2:	bf 02 00 00 00       	mov    $0x2,%edi
  4025b7:	e8 f4 eb ff ff       	callq  4011b0 <socket@plt>
  4025bc:	85 c0                	test   %eax,%eax
  4025be:	0f 88 8c 00 00 00    	js     402650 <init_driver+0xe3>
  4025c4:	89 c3                	mov    %eax,%ebx
  4025c6:	bf c4 34 40 00       	mov    $0x4034c4,%edi
  4025cb:	e8 00 eb ff ff       	callq  4010d0 <gethostbyname@plt>
  4025d0:	48 85 c0             	test   %rax,%rax
  4025d3:	0f 84 ca 00 00 00    	je     4026a3 <init_driver+0x136>
  4025d9:	48 c7 45 e0 00 00 00 	movq   $0x0,-0x20(%rbp)
  4025e0:	00 
  4025e1:	48 c7 45 e8 00 00 00 	movq   $0x0,-0x18(%rbp)
  4025e8:	00 
  4025e9:	66 c7 45 e0 02 00    	movw   $0x2,-0x20(%rbp)
  4025ef:	48 63 50 14          	movslq 0x14(%rax),%rdx
  4025f3:	48 8b 40 18          	mov    0x18(%rax),%rax
  4025f7:	48 8b 30             	mov    (%rax),%rsi
  4025fa:	b9 0c 00 00 00       	mov    $0xc,%ecx
  4025ff:	48 8d 7d e4          	lea    -0x1c(%rbp),%rdi
  402603:	e8 d8 ea ff ff       	callq  4010e0 <__memmove_chk@plt>
  402608:	bf 6e 3b 00 00       	mov    $0x3b6e,%edi
  40260d:	e8 e0 f5 ff ff       	callq  401bf2 <__bswap_16>
  402612:	66 89 45 e2          	mov    %ax,-0x1e(%rbp)
  402616:	ba 10 00 00 00       	mov    $0x10,%edx
  40261b:	48 8d 75 e0          	lea    -0x20(%rbp),%rsi
  40261f:	89 df                	mov    %ebx,%edi
  402621:	e8 3a eb ff ff       	callq  401160 <connect@plt>
  402626:	85 c0                	test   %eax,%eax
  402628:	0f 88 e7 00 00 00    	js     402715 <init_driver+0x1a8>
  40262e:	89 df                	mov    %ebx,%edi
  402630:	e8 5b ea ff ff       	callq  401090 <close@plt>
  402635:	66 41 c7 04 24 4f 4b 	movw   $0x4b4f,(%r12)
  40263c:	41 c6 44 24 02 00    	movb   $0x0,0x2(%r12)
  402642:	b8 00 00 00 00       	mov    $0x0,%eax
  402647:	48 83 c4 10          	add    $0x10,%rsp
  40264b:	5b                   	pop    %rbx
  40264c:	41 5c                	pop    %r12
  40264e:	5d                   	pop    %rbp
  40264f:	c3                   	retq   
  402650:	48 b8 45 72 72 6f 72 	movabs $0x43203a726f727245,%rax
  402657:	3a 20 43 
  40265a:	48 ba 6c 69 65 6e 74 	movabs $0x6e7520746e65696c,%rdx
  402661:	20 75 6e 
  402664:	49 89 04 24          	mov    %rax,(%r12)
  402668:	49 89 54 24 08       	mov    %rdx,0x8(%r12)
  40266d:	48 b8 61 62 6c 65 20 	movabs $0x206f7420656c6261,%rax
  402674:	74 6f 20 
  402677:	48 ba 63 72 65 61 74 	movabs $0x7320657461657263,%rdx
  40267e:	65 20 73 
  402681:	49 89 44 24 10       	mov    %rax,0x10(%r12)
  402686:	49 89 54 24 18       	mov    %rdx,0x18(%r12)
  40268b:	41 c7 44 24 20 6f 63 	movl   $0x656b636f,0x20(%r12)
  402692:	6b 65 
  402694:	66 41 c7 44 24 24 74 	movw   $0x74,0x24(%r12)
  40269b:	00 
  40269c:	b8 ff ff ff ff       	mov    $0xffffffff,%eax
  4026a1:	eb a4                	jmp    402647 <init_driver+0xda>
  4026a3:	48 b8 45 72 72 6f 72 	movabs $0x44203a726f727245,%rax
  4026aa:	3a 20 44 
  4026ad:	48 ba 4e 53 20 69 73 	movabs $0x6e7520736920534e,%rdx
  4026b4:	20 75 6e 
  4026b7:	49 89 04 24          	mov    %rax,(%r12)
  4026bb:	49 89 54 24 08       	mov    %rdx,0x8(%r12)
  4026c0:	48 b8 61 62 6c 65 20 	movabs $0x206f7420656c6261,%rax
  4026c7:	74 6f 20 
  4026ca:	48 ba 72 65 73 6f 6c 	movabs $0x2065766c6f736572,%rdx
  4026d1:	76 65 20 
  4026d4:	49 89 44 24 10       	mov    %rax,0x10(%r12)
  4026d9:	49 89 54 24 18       	mov    %rdx,0x18(%r12)
  4026de:	48 b8 73 65 72 76 65 	movabs $0x6120726576726573,%rax
  4026e5:	72 20 61 
  4026e8:	49 89 44 24 20       	mov    %rax,0x20(%r12)
  4026ed:	41 c7 44 24 28 64 64 	movl   $0x65726464,0x28(%r12)
  4026f4:	72 65 
  4026f6:	66 41 c7 44 24 2c 73 	movw   $0x7373,0x2c(%r12)
  4026fd:	73 
  4026fe:	41 c6 44 24 2e 00    	movb   $0x0,0x2e(%r12)
  402704:	89 df                	mov    %ebx,%edi
  402706:	e8 85 e9 ff ff       	callq  401090 <close@plt>
  40270b:	b8 ff ff ff ff       	mov    $0xffffffff,%eax
  402710:	e9 32 ff ff ff       	jmpq   402647 <init_driver+0xda>
  402715:	41 b8 c4 34 40 00    	mov    $0x4034c4,%r8d
  40271b:	b9 80 34 40 00       	mov    $0x403480,%ecx
  402720:	48 c7 c2 ff ff ff ff 	mov    $0xffffffffffffffff,%rdx
  402727:	be 01 00 00 00       	mov    $0x1,%esi
  40272c:	4c 89 e7             	mov    %r12,%rdi
  40272f:	b8 00 00 00 00       	mov    $0x0,%eax
  402734:	e8 67 ea ff ff       	callq  4011a0 <__sprintf_chk@plt>
  402739:	89 df                	mov    %ebx,%edi
  40273b:	e8 50 e9 ff ff       	callq  401090 <close@plt>
  402740:	b8 ff ff ff ff       	mov    $0xffffffff,%eax
  402745:	e9 fd fe ff ff       	jmpq   402647 <init_driver+0xda>

000000000040274a <driver_post>:
  40274a:	55                   	push   %rbp
  40274b:	48 89 e5             	mov    %rsp,%rbp
  40274e:	53                   	push   %rbx
  40274f:	48 83 ec 08          	sub    $0x8,%rsp
  402753:	48 89 cb             	mov    %rcx,%rbx
  402756:	85 d2                	test   %edx,%edx
  402758:	75 1b                	jne    402775 <driver_post+0x2b>
  40275a:	48 85 ff             	test   %rdi,%rdi
  40275d:	74 05                	je     402764 <driver_post+0x1a>
  40275f:	80 3f 00             	cmpb   $0x0,(%rdi)
  402762:	75 38                	jne    40279c <driver_post+0x52>
  402764:	66 c7 03 4f 4b       	movw   $0x4b4f,(%rbx)
  402769:	c6 43 02 00          	movb   $0x0,0x2(%rbx)
  40276d:	89 d0                	mov    %edx,%eax
  40276f:	48 8b 5d f8          	mov    -0x8(%rbp),%rbx
  402773:	c9                   	leaveq 
  402774:	c3                   	retq   
  402775:	48 89 f2             	mov    %rsi,%rdx
  402778:	be ce 34 40 00       	mov    $0x4034ce,%esi
  40277d:	bf 01 00 00 00       	mov    $0x1,%edi
  402782:	b8 00 00 00 00       	mov    $0x0,%eax
  402787:	e8 94 e9 ff ff       	callq  401120 <__printf_chk@plt>
  40278c:	66 c7 03 4f 4b       	movw   $0x4b4f,(%rbx)
  402791:	c6 43 02 00          	movb   $0x0,0x2(%rbx)
  402795:	b8 00 00 00 00       	mov    $0x0,%eax
  40279a:	eb d3                	jmp    40276f <driver_post+0x25>
  40279c:	48 83 ec 08          	sub    $0x8,%rsp
  4027a0:	51                   	push   %rcx
  4027a1:	49 89 f1             	mov    %rsi,%r9
  4027a4:	41 b8 e5 34 40 00    	mov    $0x4034e5,%r8d
  4027aa:	48 89 f9             	mov    %rdi,%rcx
  4027ad:	ba f1 34 40 00       	mov    $0x4034f1,%edx
  4027b2:	be 6e 3b 00 00       	mov    $0x3b6e,%esi
  4027b7:	bf c4 34 40 00       	mov    $0x4034c4,%edi
  4027bc:	e8 a1 f6 ff ff       	callq  401e62 <submitr>
  4027c1:	48 83 c4 10          	add    $0x10,%rsp
  4027c5:	eb a8                	jmp    40276f <driver_post+0x25>
  4027c7:	66 0f 1f 84 00 00 00 	nopw   0x0(%rax,%rax,1)
  4027ce:	00 00 

00000000004027d0 <__libc_csu_init>:
  4027d0:	f3 0f 1e fa          	endbr64 
  4027d4:	41 57                	push   %r15
  4027d6:	4c 8d 3d 33 26 00 00 	lea    0x2633(%rip),%r15        # 404e10 <__frame_dummy_init_array_entry>
  4027dd:	41 56                	push   %r14
  4027df:	49 89 d6             	mov    %rdx,%r14
  4027e2:	41 55                	push   %r13
  4027e4:	49 89 f5             	mov    %rsi,%r13
  4027e7:	41 54                	push   %r12
  4027e9:	41 89 fc             	mov    %edi,%r12d
  4027ec:	55                   	push   %rbp
  4027ed:	48 8d 2d 24 26 00 00 	lea    0x2624(%rip),%rbp        # 404e18 <__init_array_end>
  4027f4:	53                   	push   %rbx
  4027f5:	4c 29 fd             	sub    %r15,%rbp
  4027f8:	48 83 ec 08          	sub    $0x8,%rsp
  4027fc:	e8 ff e7 ff ff       	callq  401000 <_init>
  402801:	48 c1 fd 03          	sar    $0x3,%rbp
  402805:	74 1f                	je     402826 <__libc_csu_init+0x56>
  402807:	31 db                	xor    %ebx,%ebx
  402809:	0f 1f 80 00 00 00 00 	nopl   0x0(%rax)
  402810:	4c 89 f2             	mov    %r14,%rdx
  402813:	4c 89 ee             	mov    %r13,%rsi
  402816:	44 89 e7             	mov    %r12d,%edi
  402819:	41 ff 14 df          	callq  *(%r15,%rbx,8)
  40281d:	48 83 c3 01          	add    $0x1,%rbx
  402821:	48 39 dd             	cmp    %rbx,%rbp
  402824:	75 ea                	jne    402810 <__libc_csu_init+0x40>
  402826:	48 83 c4 08          	add    $0x8,%rsp
  40282a:	5b                   	pop    %rbx
  40282b:	5d                   	pop    %rbp
  40282c:	41 5c                	pop    %r12
  40282e:	41 5d                	pop    %r13
  402830:	41 5e                	pop    %r14
  402832:	41 5f                	pop    %r15
  402834:	c3                   	retq   
  402835:	66 66 2e 0f 1f 84 00 	data16 nopw %cs:0x0(%rax,%rax,1)
  40283c:	00 00 00 00 

0000000000402840 <__libc_csu_fini>:
  402840:	f3 0f 1e fa          	endbr64 
  402844:	c3                   	retq   

Disassembly of section .fini:

0000000000402848 <_fini>:
  402848:	f3 0f 1e fa          	endbr64 
  40284c:	48 83 ec 08          	sub    $0x8,%rsp
  402850:	48 83 c4 08          	add    $0x8,%rsp
  402854:	c3                   	retq   
